(dp0
S'history'
p1
ccopy_reg
_reconstructor
p2
(cdeap.tools.support
History
p3
c__builtin__
object
p4
Ntp5
Rp6
(dp7
S'genealogy_tree'
p8
(dp9
I1
(tsI2
(tsI3
(tsI4
(tsI5
(tsI6
(tsI7
(tsI8
(tsI9
(tsI10
(tsI11
(I1
I2
I3
I4
I5
I6
I7
I8
I9
I10
I1
I2
I3
I4
I5
I6
I7
I8
I9
I10
tp10
sI12
g10
sI13
g10
sI14
g10
sI15
g10
sI16
g10
sI17
g10
sI18
g10
sI19
g10
sI20
g10
sI21
g10
sI22
g10
sI23
g10
sI24
g10
sI25
g10
sI26
g10
sI27
g10
sI28
g10
sI29
g10
sI30
g10
ssS'genealogy_index'
p11
I30
sS'genealogy_history'
p12
(dp13
I1
g2
(cbluepyopt.deapext.optimisations
WSListIndividual
p14
c__builtin__
list
p15
(lp16
F0.013436510974815711
atp17
Rp18
(dp19
S'history_index'
p20
I1
sS'fitness'
p21
g2
(cbluepyopt.deapext.optimisations
WeightedSumFitness
p22
g4
Ntp23
Rp24
(dp25
S'weights'
p26
(lp27
F-1.0
aF-1.0
aF-1.0
aF-1.0
asS'wvalues'
p28
(F-11.985568969763339
F-7.00139801470072
F-3.9918200409001052
F-6.336086347631237
tp29
sbsbsI2
g2
(g14
g15
(lp30
F0.08474338895034958
atp31
Rp32
(dp33
g20
I2
sg21
g2
(g22
g4
Ntp34
Rp35
(dp36
g26
(lp37
F-1.0
aF-1.0
aF-1.0
aF-1.0
asg28
(F-11.9885751102457
F-12.508214287828645
F-144.31372549038312
F-6.3073613510918065
tp38
sbsbsI3
g2
(g14
g15
(lp39
F0.0763774855201995
atp40
Rp41
(dp42
g20
I3
sg21
g2
(g22
g4
Ntp43
Rp44
(dp45
g26
(lp46
F-1.0
aF-1.0
aF-1.0
aF-1.0
asg28
(F-11.98818030338088
F-12.508214287828645
F-144.31372549038312
F-6.312207246978803
tp47
sbsbsI4
g2
(g14
g15
(lp48
F0.025506977067039596
atp49
Rp50
(dp51
g20
I4
sg21
g2
(g22
g4
Ntp52
Rp53
(dp54
g26
(lp55
F-1.0
aF-1.0
aF-1.0
aF-1.0
asg28
(F-11.985923695046662
F-6.89768834115332
F-2.5105899369770457
F-6.331591369527296
tp56
sbsbsI5
g2
(g14
g15
(lp57
F0.04954355916568539
atp58
Rp59
(dp60
g20
I5
sg21
g2
(g22
g4
Ntp61
Rp62
(dp63
g26
(lp64
F-1.0
aF-1.0
aF-1.0
aF-1.0
asg28
(F-11.987258711731613
F-12.508214287828645
F-144.31372549038312
F-6.322513928847217
tp65
sbsbsI6
g2
(g14
g15
(lp66
F0.044949161529767336
atp67
Rp68
(dp69
g20
I6
sg21
g2
(g22
g4
Ntp70
Rp71
(dp72
g26
(lp73
F-1.0
aF-1.0
aF-1.0
aF-1.0
asg28
(F-11.987129449252178
F-13.255640477642336
F-18.287349274473712
F-6.324218849384667
tp74
sbsbsI7
g2
(g14
g15
(lp75
F0.06515933211297903
atp76
Rp77
(dp78
g20
I7
sg21
g2
(g22
g4
Ntp79
Rp80
(dp81
g26
(lp82
F-1.0
aF-1.0
aF-1.0
aF-1.0
asg28
(F-11.987881579222144
F-12.508214287828645
F-144.31372549038312
F-6.316441471959778
tp83
sbsbsI8
g2
(g14
g15
(lp84
F0.0788723562412162
atp85
Rp86
(dp87
g20
I8
sg21
g2
(g22
g4
Ntp88
Rp89
(dp90
g26
(lp91
F-1.0
aF-1.0
aF-1.0
aF-1.0
asg28
(F-11.988271963081685
F-12.508214287828645
F-144.31372549038312
F-6.311262579472625
tp92
sbsbsI9
g2
(g14
g15
(lp93
F0.009386049291464811
atp94
Rp95
(dp96
g20
I9
sg21
g2
(g22
g4
Ntp97
Rp98
(dp99
g26
(lp100
F-1.0
aF-1.0
aF-1.0
aF-1.0
asg28
(F-11.985088890861789
F-7.1035711712028045
F-4.500453674766216
F-6.3375885680123005
tp101
sbsbsI10
g2
(g14
g15
(lp102
F0.0028348448174529786
atp103
Rp104
(dp105
g20
I10
sg21
g2
(g22
g4
Ntp106
Rp107
(dp108
g26
(lp109
F-1.0
aF-1.0
aF-1.0
aF-1.0
asg28
(F-11.98507806450957
F-7.123051511724971
F-5.347852389595309
F-6.339869844861707
tp110
sbsbsI11
g2
(g14
g15
(lp111
F0.013436510974815711
atp112
Rp113
(dp114
g20
I11
sg21
g2
(g22
g4
Ntp115
Rp116
(dp117
g26
g27
sg28
g29
sbsbsI12
g2
(g14
g15
(lp118
F0.08474338895034958
atp119
Rp120
(dp121
g20
I12
sg21
g2
(g22
g4
Ntp122
Rp123
(dp124
g26
g37
sg28
g38
sbsbsI13
g2
(g14
g15
(lp125
F0.0763774855201995
atp126
Rp127
(dp128
g20
I13
sg21
g2
(g22
g4
Ntp129
Rp130
(dp131
g26
g46
sg28
g47
sbsbsI14
g2
(g14
g15
(lp132
F0.025506977067039596
atp133
Rp134
(dp135
g20
I14
sg21
g2
(g22
g4
Ntp136
Rp137
(dp138
g26
g55
sg28
g56
sbsbsI15
g2
(g14
g15
(lp139
F0.04954355916568539
atp140
Rp141
(dp142
g20
I15
sg21
g2
(g22
g4
Ntp143
Rp144
(dp145
g26
g64
sg28
g65
sbsbsI16
g2
(g14
g15
(lp146
F0.044949161529767336
atp147
Rp148
(dp149
g20
I16
sg21
g2
(g22
g4
Ntp150
Rp151
(dp152
g26
g73
sg28
g74
sbsbsI17
g2
(g14
g15
(lp153
F0.06515933211297903
atp154
Rp155
(dp156
g20
I17
sg21
g2
(g22
g4
Ntp157
Rp158
(dp159
g26
g82
sg28
g83
sbsbsI18
g2
(g14
g15
(lp160
F0.0788723562412162
atp161
Rp162
(dp163
g20
I18
sg21
g2
(g22
g4
Ntp164
Rp165
(dp166
g26
g91
sg28
g92
sbsbsI19
g2
(g14
g15
(lp167
F0.009386049291464811
atp168
Rp169
(dp170
g20
I19
sg21
g2
(g22
g4
Ntp171
Rp172
(dp173
g26
g100
sg28
g101
sbsbsI20
g2
(g14
g15
(lp174
F0.0028348448174529786
atp175
Rp176
(dp177
g20
I20
sg21
g2
(g22
g4
Ntp178
Rp179
(dp180
g26
g109
sg28
g110
sbsbsI21
g2
(g14
g15
(lp181
F0.08592934817323908
atp182
Rp183
(dp184
g20
I21
sg21
g2
(g22
g4
Ntp185
Rp186
(dp187
g26
g27
sg28
(F-11.988628402867002
F-12.508214287828645
F-144.31372549038312
F-6.306908791824067
tp188
sbsbsI22
g2
(g14
g15
(lp189
F0.006698586970480294
atp190
Rp191
(dp192
g20
I22
sg21
g2
(g22
g4
Ntp193
Rp194
(dp195
g26
g37
sg28
(F-11.985173374918523
F-7.008827437589275
F-4.889389594428797
F-6.338257368001713
tp196
sbsbsI23
g2
(g14
g15
(lp197
F0.07153952409223363
atp198
Rp199
(dp200
g20
I23
sg21
g2
(g22
g4
Ntp201
Rp202
(dp203
g26
g46
sg28
(F-11.98818197848487
F-12.508214287828645
F-144.31372549038312
F-6.314040813049562
tp204
sbsbsI24
g2
(g14
g15
(lp205
F0.025506977067039596
atp206
Rp207
(dp208
g20
I24
sg21
g2
(g22
g4
Ntp209
Rp210
(dp211
g26
g55
sg28
(F-11.985923695046662
F-6.89768834115332
F-2.5105899369770457
F-6.331591369527296
tp212
sbsbsI25
g2
(g14
g15
(lp213
F0.04954355916568539
atp214
Rp215
(dp216
g20
I25
sg21
g2
(g22
g4
Ntp217
Rp218
(dp219
g26
g64
sg28
(F-11.987258711731613
F-12.508214287828645
F-144.31372549038312
F-6.322513928847217
tp220
sbsbsI26
g2
(g14
g15
(lp221
F0.044949161529767336
atp222
Rp223
(dp224
g20
I26
sg21
g2
(g22
g4
Ntp225
Rp226
(dp227
g26
g73
sg28
(F-11.987129449252178
F-13.255640477642336
F-18.287349274473712
F-6.324218849384667
tp228
sbsbsI27
g2
(g14
g15
(lp229
F0.06314985479180545
atp230
Rp231
(dp232
g20
I27
sg21
g2
(g22
g4
Ntp233
Rp234
(dp235
g26
g82
sg28
(F-11.987789187071181
F-12.508214287828645
F-144.31372549038312
F-6.317195784483443
tp236
sbsbsI28
g2
(g14
g15
(lp237
F0.07724613344251734
atp238
Rp239
(dp240
g20
I28
sg21
g2
(g22
g4
Ntp241
Rp242
(dp243
g26
g91
sg28
(F-11.988212636851449
F-12.508214287828645
F-144.31372549038312
F-6.311878501541676
tp244
sbsbsI29
g2
(g14
g15
(lp245
F0.018489678208979482
atp246
Rp247
(dp248
g20
I29
sg21
g2
(g22
g4
Ntp249
Rp250
(dp251
g26
g100
sg28
(F-11.985751143561917
F-6.922318765456948
F-3.3474357651430298
F-6.334277880091668
tp252
sbsbsI30
g2
(g14
g15
(lp253
F0.004810241066605847
atp254
Rp255
(dp256
g20
I30
sg21
g2
(g22
g4
Ntp257
Rp258
(dp259
g26
g109
sg28
(F-11.985120555619867
F-6.939148637423427
F-5.170378042465086
F-6.339069963633708
tp260
sbsbssbsS'parents'
p261
(lp262
g2
(g14
g15
(lp263
F0.009386049291464811
atp264
Rp265
(dp266
g20
I19
sS'ibea_fitness'
p267
cnumpy.core.multiarray
scalar
p268
(cnumpy
dtype
p269
(S'f8'
p270
I0
I1
tp271
Rp272
(I3
S'<'
p273
NNNI-1
I-1
I0
tp274
bS'\xa8\xd6\xfc\xdd\xc74\xf6?'
p275
tp276
Rp277
sg21
g2
(g22
g4
Ntp278
Rp279
(dp280
g26
g100
sg28
g101
sbsbag2
(g14
g15
(lp281
F0.08592934817323908
atp282
Rp283
(dp284
g20
I21
sg267
g268
(g272
S'TM9\x11\xfa\t\xee?'
p285
tp286
Rp287
sg21
g2
(g22
g4
Ntp288
Rp289
(dp290
g26
g27
sg28
g188
sbsbag2
(g14
g15
(lp291
F0.044949161529767336
atp292
Rp293
(dp294
g20
I26
sg267
g268
(g272
S'X,\r\xca\x83l\xf0?'
p295
tp296
Rp297
sg21
g2
(g22
g4
Ntp298
Rp299
(dp300
g26
g73
sg28
g228
sbsbag2
(g14
g15
(lp301
F0.025506977067039596
atp302
Rp303
(dp304
g20
I14
sg267
g268
(g272
S'`tK<j(\xf5?'
p305
tp306
Rp307
sg21
g2
(g22
g4
Ntp308
Rp309
(dp310
g26
g55
sg28
g56
sbsbag283
ag283
ag293
ag2
(g14
g15
(lp311
F0.06314985479180545
atp312
Rp313
(dp314
g20
I27
sg267
g268
(g272
S'\xfc\x94\xd6~\xc3\x9c\xf1?'
p315
tp316
Rp317
sg21
g2
(g22
g4
Ntp318
Rp319
(dp320
g26
g82
sg28
g236
sbsbag2
(g14
g15
(lp321
F0.06515933211297903
atp322
Rp323
(dp324
g20
I17
sg267
g268
(g272
S'\xa4\xbf\x88o\xdf\xf2\xf5?'
p325
tp326
Rp327
sg21
g2
(g22
g4
Ntp328
Rp329
(dp330
g26
g82
sg28
g83
sbsbag283
asS'generation'
p331
I2
sS'logbook'
p332
g2
(cdeap.tools.support
Logbook
p333
g15
(lp334
(dp335
S'std'
p336
g268
(g272
S'\xbcC9\x86{\xc2Q@'
p337
tp338
Rp339
sS'nevals'
p340
I10
sS'min'
p341
g268
(g272
S'\xd0\x91\xae\x97\xcd\xb9;@'
p342
tp343
Rp344
sS'max'
p345
g268
(g272
S'\xd9e\xf6\xfc6\xe4e@'
p346
tp347
Rp348
sS'avg'
p349
g268
(g272
S'F\xcd!\xd9\xb7\x14Z@'
p350
tp351
Rp352
sS'gen'
p353
I1
sa(dp354
g336
g268
(g272
S'\x9ec\x1a\xcd*\xc5Q@'
p355
tp356
Rp357
sg340
I10
sg341
g268
(g272
S'\xd0\x91\xae\x97\xcd\xb9;@'
p358
tp359
Rp360
sg345
g268
(g272
S'\xd9e\xf6\xfc6\xe4e@'
p361
tp362
Rp363
sg349
g268
(g272
S'z\xe5\xe0\xfc0\x12Z@'
p364
tp365
Rp366
sg353
I2
satp367
Rp368
(dp369
S'log_header'
p370
I01
sS'header'
p371
(lp372
g353
ag340
ag349
ag336
ag341
ag345
asS'columns_len'
p373
(lp374
I3
aI6
aI7
aI7
aI7
aI7
asS'buffindex'
p375
I2
sS'chapters'
p376
ccollections
defaultdict
p377
(g333
tp378
Rp379
sbsS'rndstate'
p380
(I3
(L2145931878L
L2812664348L
L2124062512L
L3757238068L
L2453315318L
L1634707757L
L1382563816L
L2097433739L
L311746133L
L2032626074L
L2617776101L
L1877538630L
L1158287594L
L1111761113L
L650853131L
L3869983018L
L2622923993L
L3845947563L
L4034124803L
L3529923841L
L263419425L
L988778765L
L459585442L
L250000960L
L2862328889L
L3831024473L
L376081109L
L3160276335L
L2681558278L
L3610562257L
L3737464566L
L4277502420L
L810823568L
L1660136801L
L3616377324L
L3405043087L
L312580666L
L3533264489L
L1350493301L
L2122280547L
L3694157202L
L4101260871L
L334760505L
L1001399085L
L4032193053L
L635051900L
L1014848001L
L77323629L
L1070905620L
L4245065876L
L197191146L
L2668164234L
L2624765451L
L3263880227L
L1253021119L
L780557860L
L3494191106L
L1888043228L
L2730480597L
L2457734185L
L533240640L
L3054437375L
L2913464164L
L1357763286L
L1045027602L
L1724499345L
L3008672616L
L3438668475L
L3323437141L
L2773702905L
L747342820L
L346050065L
L2381318917L
L2928624060L
L3817839784L
L802250010L
L2271060476L
L1303931860L
L1637065750L
L452736219L
L1148317707L
L2293975124L
L1759645173L
L1550558780L
L3345762501L
L1608452836L
L2598279791L
L3660910759L
L978982086L
L4120101375L
L3894792265L
L2823378193L
L934829337L
L4286897875L
L4002609413L
L4246864328L
L1324405512L
L279562789L
L3043357970L
L3228171372L
L2258574612L
L406825161L
L1388938891L
L1964036799L
L1803893273L
L4119105266L
L4040973308L
L2846817613L
L1069387937L
L410354976L
L1831161730L
L1377379312L
L3275937080L
L1785820974L
L2746243425L
L943998045L
L388790751L
L3234299277L
L1458745124L
L4273819277L
L3014921995L
L932388939L
L494247651L
L3089207579L
L32910364L
L1720974976L
L2769802043L
L4016334306L
L2247766834L
L3414149001L
L2454052410L
L700926996L
L501327659L
L3168332128L
L3664981204L
L2837401143L
L301098975L
L3520268638L
L1390827609L
L341186989L
L941589979L
L1710246063L
L43416237L
L1302636405L
L3868932099L
L2924349096L
L3324782012L
L3799410212L
L4102741388L
L31863226L
L2111384030L
L3113879245L
L270856142L
L2994106877L
L642831667L
L3306439346L
L1408809959L
L3978918894L
L3422047912L
L239974707L
L1550642032L
L2043847969L
L3027673654L
L2529047530L
L3070308428L
L4054575122L
L3400858435L
L3272761741L
L1475089226L
L3147811930L
L386952169L
L3319901201L
L732520351L
L1317005210L
L790631883L
L3220337686L
L4139120751L
L2658777157L
L3086988428L
L1793254639L
L2750911286L
L3653955340L
L452165491L
L1605816595L
L203032188L
L3612712556L
L3824620473L
L3076469577L
L867345620L
L158571227L
L1927009577L
L106535911L
L579058007L
L115010199L
L2358886172L
L247889382L
L2506598836L
L3983367197L
L1580571821L
L2665295034L
L2683285595L
L3738351894L
L594605564L
L4098727176L
L774035931L
L2537418448L
L4158003969L
L1535576236L
L572209529L
L842702075L
L3778032710L
L2783384848L
L2200217090L
L2794415814L
L311739062L
L3969800442L
L1247200684L
L1433159463L
L2179685797L
L4175775678L
L3654853992L
L3896011302L
L4061611257L
L2626140823L
L3103130952L
L3930139487L
L254052748L
L3855707803L
L4196974555L
L1060884119L
L370921039L
L1369695587L
L3476738923L
L2162894901L
L4206583013L
L2395981551L
L255940678L
L3708995520L
L3392486002L
L2689507313L
L752695856L
L125947260L
L467246764L
L40871673L
L3043356200L
L200152678L
L2085165538L
L3794697076L
L3939684254L
L1037585914L
L102277793L
L2637200524L
L3627750205L
L380912797L
L665055749L
L392498022L
L2996789283L
L1318254951L
L316222422L
L1961777278L
L3679659174L
L1113345985L
L1938416582L
L157033001L
L1060150735L
L2928427570L
L3031880670L
L1249659479L
L2103732829L
L1662315153L
L224134794L
L1666358220L
L3491691947L
L2994204234L
L3329478809L
L450393053L
L2475722664L
L3882254920L
L1963172877L
L1595157620L
L3822895224L
L219949288L
L3264033175L
L1768824945L
L3394654527L
L813157357L
L2652542294L
L2960758170L
L2006940009L
L417447429L
L2718236352L
L2306344607L
L3825472333L
L652682110L
L3646396725L
L4178601215L
L4182934660L
L172883031L
L2673609519L
L2246646249L
L909411501L
L2850241054L
L4285343988L
L1592910492L
L1859326953L
L155590330L
L3825048667L
L3150087862L
L4015479494L
L1261845165L
L3080033638L
L2814764156L
L3605663608L
L2619617803L
L1255448837L
L1340967525L
L2863030729L
L1623023707L
L3021485081L
L2294903856L
L4079437409L
L3401442104L
L4150346880L
L905975971L
L2264911473L
L2661393375L
L1911345740L
L3800820143L
L4045562039L
L2558483597L
L1459757714L
L118106860L
L1165858281L
L3057048982L
L1457598026L
L197563863L
L3482681317L
L1713976572L
L1704580147L
L1345230193L
L960599348L
L2434153067L
L3986217646L
L2562071497L
L4277326293L
L2288804618L
L2373075337L
L4026907498L
L559399088L
L3994811970L
L1748246240L
L687909573L
L2656541313L
L172839962L
L1174986454L
L4123080855L
L2239769691L
L222356582L
L4076456083L
L446958688L
L842651752L
L3561944614L
L3880131068L
L3433903804L
L3507559252L
L1012782172L
L2558770155L
L2772515112L
L4025245999L
L3248494244L
L1779144398L
L3395778014L
L2734475333L
L695844093L
L1290330662L
L1348668716L
L1169819265L
L796648845L
L1416586549L
L1522242969L
L2981687293L
L1468877895L
L1627160527L
L3666017126L
L1084527681L
L2601809345L
L72723237L
L1387085801L
L334999804L
L1564694271L
L3733856209L
L681963346L
L3489909748L
L949258174L
L2928118053L
L3863991536L
L3860593327L
L371432064L
L2575555142L
L426115244L
L2954856811L
L738028837L
L2664775487L
L2540462133L
L1322574653L
L2440615834L
L1338114700L
L3445183261L
L2821723677L
L2272860399L
L885803491L
L634144735L
L3275178777L
L83733744L
L1593352389L
L4046246413L
L877273755L
L683929789L
L790672351L
L2430706559L
L570506740L
L2669651553L
L209071247L
L3739791889L
L472530666L
L2981037569L
L40670990L
L4292910015L
L3195102466L
L1086142594L
L401531731L
L1619377167L
L4284349834L
L1834858583L
L1172361590L
L2976206011L
L2415996136L
L1956409217L
L1033358882L
L1370606489L
L1598039538L
L96830232L
L3131853462L
L3069309981L
L1400793433L
L534873231L
L2935522266L
L4083954307L
L1846596282L
L4275881991L
L773909968L
L1619496540L
L4241071846L
L3009854081L
L1952112440L
L2909601846L
L916094182L
L2826710343L
L1495955125L
L121231768L
L3642376035L
L682139425L
L3628442591L
L2908496930L
L3520543028L
L316238059L
L476986715L
L636297407L
L849499740L
L395347414L
L3517436195L
L1849992417L
L1944041972L
L3425230772L
L2095805479L
L2198266975L
L4279057091L
L35576657L
L1423952153L
L1582221890L
L1042550686L
L288566674L
L762411014L
L2694392405L
L1269447923L
L586416626L
L4169660375L
L795857783L
L2933865700L
L3947261096L
L3801443464L
L628738126L
L1127394996L
L2004091842L
L65609766L
L277434259L
L2255879117L
L3438791353L
L1220614401L
L2159381984L
L1479433625L
L4231169481L
L3311733975L
L3382481877L
L3880121300L
L3862497039L
L3645340820L
L4129470912L
L2143211840L
L180169020L
L2915321296L
L3013760655L
L319458457L
L1666519955L
L1072488057L
L4119017956L
L3065963998L
L3156524904L
L1548959907L
L1267883695L
L2858827881L
L2625989395L
L3338785263L
L1691602716L
L2126211298L
L4007673737L
L4186027339L
L3846281941L
L70982851L
L263837795L
L659126827L
L2980846218L
L192284478L
L3080459272L
L4105006353L
L1224966312L
L1667467732L
L4192844552L
L2947345608L
L1312721267L
L995387948L
L279230837L
L413447447L
L3793770271L
L39507081L
L821660310L
L1794005643L
L35589677L
L164333017L
L1880971233L
L3535746068L
L1091601157L
L4272598904L
L3030179358L
L1207804127L
L4246440144L
L44060734L
L707622306L
L3535335353L
L1109926354L
L1478596677L
L1288794273L
L1480163940L
L46632306L
L1024263904L
L3525603704L
L1158005009L
L3704447404L
L4207129671L
L3162795188L
L1764109563L
L1915386681L
L3562005320L
L837276014L
L887012411L
L1646982126L
L3997694881L
L1003924412L
L606949730L
L3028470314L
L703448649L
L1878850504L
L2180010676L
L3610946004L
L1578597952L
L2383086216L
L3262442230L
L270896879L
L3760345043L
L3673647483L
L3194484015L
L815370489L
L3180391826L
L4108166383L
L1424301908L
L1634817111L
L2112933683L
L4176915707L
L3070150981L
L3653757342L
L168271118L
L1169894375L
L1320356651L
L1768323237L
L1157127152L
L3438525973L
L2396010740L
L4040288261L
L623910253L
L1716641262L
L631969644L
L552213659L
L667069678L
L2235286461L
L2693025350L
L1460659877L
L251530665L
L3924798194L
L1358308953L
L433843275L
L1936266853L
L747480833L
L3545787415L
L3656373148L
L184L
tp381
Ntp382
sS'halloffame'
p383
g2
(cdeap.tools.support
HallOfFame
p384
g4
Ntp385
Rp386
(dp387
S'keys'
p388
(lp389
g2
(g22
g4
Ntp390
Rp391
(dp392
g26
g37
sg28
g38
sbag2
(g22
g4
Ntp393
Rp394
(dp395
g26
g27
sg28
g188
sbag2
(g22
g4
Ntp396
Rp397
(dp398
g26
g73
sg28
g74
sbag2
(g22
g4
Ntp399
Rp400
(dp401
g26
g109
sg28
g110
sbag2
(g22
g4
Ntp402
Rp403
(dp404
g26
g109
sg28
g260
sbag2
(g22
g4
Ntp405
Rp406
(dp407
g26
g37
sg28
g196
sbag2
(g22
g4
Ntp408
Rp409
(dp410
g26
g100
sg28
g101
sbag2
(g22
g4
Ntp411
Rp412
(dp413
g26
g27
sg28
g29
sbag2
(g22
g4
Ntp414
Rp415
(dp416
g26
g100
sg28
g252
sbag2
(g22
g4
Ntp417
Rp418
(dp419
g26
g55
sg28
g56
sbasS'items'
p420
(lp421
g2
(g14
g15
(lp422
F0.025506977067039596
atp423
Rp424
(dp425
g21
g418
sbag2
(g14
g15
(lp426
F0.018489678208979482
atp427
Rp428
(dp429
g20
I9
sg21
g415
sbag2
(g14
g15
(lp430
F0.013436510974815711
atp431
Rp432
(dp433
g21
g412
sbag2
(g14
g15
(lp434
F0.009386049291464811
atp435
Rp436
(dp437
g21
g409
sbag2
(g14
g15
(lp438
F0.006698586970480294
atp439
Rp440
(dp441
g20
I2
sg21
g406
sbag2
(g14
g15
(lp442
F0.004810241066605847
atp443
Rp444
(dp445
g20
I10
sg21
g403
sbag2
(g14
g15
(lp446
F0.0028348448174529786
atp447
Rp448
(dp449
g21
g400
sbag2
(g14
g15
(lp450
F0.044949161529767336
atp451
Rp452
(dp453
g21
g397
sbag2
(g14
g15
(lp454
F0.08592934817323908
atp455
Rp456
(dp457
g20
I1
sg21
g394
sbag2
(g14
g15
(lp458
F0.08474338895034958
atp459
Rp460
(dp461
g21
g391
sbasS'maxsize'
p462
I10
sS'similar'
p463
coperator
eq
p464
sbsS'population'
p465
(lp466
g283
ag2
(g14
g15
(lp467
F0.08474338895034958
atp468
Rp469
(dp470
g20
I12
sg267
g268
(g272
S'\xd0`b\xca\x90;\xef?'
p471
tp472
Rp473
sg21
g2
(g22
g4
Ntp474
Rp475
(dp476
g26
g37
sg28
g38
sbsbag2
(g14
g15
(lp477
F0.044949161529767336
atp478
Rp479
(dp480
g20
I16
sg267
g268
(g272
S'X,\r\xca\x83l\xf0?'
p481
tp482
Rp483
sg21
g2
(g22
g4
Ntp484
Rp485
(dp486
g26
g73
sg28
g74
sbsbag293
ag313
ag2
(g14
g15
(lp487
F0.04954355916568539
atp488
Rp489
(dp490
g20
I15
sg267
g268
(g272
S'\xba\\\x08m\x1a\xce\xf4?'
p491
tp492
Rp493
sg21
g2
(g22
g4
Ntp494
Rp495
(dp496
g26
g64
sg28
g65
sbsbag2
(g14
g15
(lp497
F0.04954355916568539
atp498
Rp499
(dp500
g20
I25
sg267
g268
(g272
S'\xba\\\x08m\x1a\xce\xf4?'
p501
tp502
Rp503
sg21
g2
(g22
g4
Ntp504
Rp505
(dp506
g26
g64
sg28
g220
sbsbag303
ag2
(g14
g15
(lp507
F0.025506977067039596
atp508
Rp509
(dp510
g20
I24
sg267
g268
(g272
S'`tK<j(\xf5?'
p511
tp512
Rp513
sg21
g2
(g22
g4
Ntp514
Rp515
(dp516
g26
g55
sg28
g212
sbsbag323
ag265
ag2
(g14
g15
(lp517
F0.018489678208979482
atp518
Rp519
(dp520
g20
I29
sg267
g268
(g272
S'\xda[\xb2\xae$o\xf6?'
p521
tp522
Rp523
sg21
g2
(g22
g4
Ntp524
Rp525
(dp526
g26
g100
sg28
g252
sbsbag2
(g14
g15
(lp527
F0.013436510974815711
atp528
Rp529
(dp530
g20
I11
sg267
g268
(g272
S'dd\xd6\x9dB\x04\xf9?'
p531
tp532
Rp533
sg21
g2
(g22
g4
Ntp534
Rp535
(dp536
g26
g27
sg28
g29
sbsbag2
(g14
g15
(lp537
F0.0788723562412162
atp538
Rp539
(dp540
g20
I18
sg267
g268
(g272
S'\xca\x8bc\xad\x078\xfd?'
p541
tp542
Rp543
sg21
g2
(g22
g4
Ntp544
Rp545
(dp546
g26
g91
sg28
g92
sbsbag2
(g14
g15
(lp547
F0.006698586970480294
atp548
Rp549
(dp550
g20
I22
sg267
g268
(g272
S'\xb8s,R\x7fx\xfe?'
p551
tp552
Rp553
sg21
g2
(g22
g4
Ntp554
Rp555
(dp556
g26
g37
sg28
g196
sbsbag2
(g14
g15
(lp557
F0.004810241066605847
atp558
Rp559
(dp560
g20
I30
sg267
g268
(g272
S'\xde2\x80f/=\x00@'
p561
tp562
Rp563
sg21
g2
(g22
g4
Ntp564
Rp565
(dp566
g26
g109
sg28
g260
sbsbag2
(g14
g15
(lp567
F0.0763774855201995
atp568
Rp569
(dp570
g20
I13
sg267
g268
(g272
S'0Yl\xc7\xa9\x9e\x00@'
p571
tp572
Rp573
sg21
g2
(g22
g4
Ntp574
Rp575
(dp576
g26
g46
sg28
g47
sbsbag2
(g14
g15
(lp577
F0.07724613344251734
atp578
Rp579
(dp580
g20
I28
sg267
g268
(g272
S'|\xc3\xd2\xa6\x85\x18\x01@'
p581
tp582
Rp583
sg21
g2
(g22
g4
Ntp584
Rp585
(dp586
g26
g91
sg28
g244
sbsbag2
(g14
g15
(lp587
F0.0028348448174529786
atp588
Rp589
(dp590
g20
I20
sg267
g268
(g272
S'TO\x84\xce\x1cR\x03@'
p591
tp592
Rp593
sg21
g2
(g22
g4
Ntp594
Rp595
(dp596
g26
g109
sg28
g110
sbsbag2
(g14
g15
(lp597
F0.07153952409223363
atp598
Rp599
(dp600
g20
I23
sg267
g268
(g272
S'^\x17T\xe2\xcb=\x08@'
p601
tp602
Rp603
sg21
g2
(g22
g4
Ntp604
Rp605
(dp606
g26
g46
sg28
g204
sbsbas.