(dp0
S'history'
p1
ccopy_reg
_reconstructor
p2
(cdeap.tools.support
History
p3
c__builtin__
object
p4
Ntp5
Rp6
(dp7
S'genealogy_tree'
p8
(dp9
I1
(tsI2
(tsI3
(tsI4
(tsI5
(tsI6
(tsI7
(tsI8
(tsI9
(tsI10
(tsI11
(I1
I2
I3
I4
I5
I6
I7
I8
I9
I10
I1
I2
I3
I4
I5
I6
I7
I8
I9
I10
tp10
sI12
g10
sI13
g10
sI14
g10
sI15
g10
sI16
g10
sI17
g10
sI18
g10
sI19
g10
sI20
g10
sI21
g10
sI22
g10
sI23
g10
sI24
g10
sI25
g10
sI26
g10
sI27
g10
sI28
g10
sI29
g10
sI30
g10
sI31
(I19
I24
I29
I26
I23
I13
I28
I19
I24
I29
I19
I24
I29
I26
I23
I13
I28
I19
I24
I29
tp11
sI32
g11
sI33
g11
sI34
g11
sI35
g11
sI36
g11
sI37
g11
sI38
g11
sI39
g11
sI40
g11
sI41
g11
sI42
g11
sI43
g11
sI44
g11
sI45
g11
sI46
g11
sI47
g11
sI48
g11
sI49
g11
sI50
g11
sI51
(I49
I42
I49
I37
I44
I50
I36
I49
I50
I50
I49
I42
I49
I37
I44
I50
I36
I49
I50
I50
tp12
sI52
g12
sI53
g12
sI54
g12
sI55
g12
sI56
g12
sI57
g12
sI58
g12
sI59
g12
sI60
g12
sI61
g12
sI62
g12
sI63
g12
sI64
g12
sI65
g12
sI66
g12
sI67
g12
sI68
g12
sI69
g12
sI70
g12
sI71
(I52
I68
I64
I57
I64
I66
I66
I54
I64
I66
I52
I68
I64
I57
I64
I66
I66
I54
I64
I66
tp13
sI72
g13
sI73
g13
sI74
g13
sI75
g13
sI76
g13
sI77
g13
sI78
g13
sI79
g13
sI80
g13
sI81
g13
sI82
g13
sI83
g13
sI84
g13
sI85
g13
sI86
g13
sI87
g13
sI88
g13
sI89
g13
sI90
g13
sI91
(I71
I88
I89
I71
I89
I85
I86
I87
I81
I86
I71
I88
I89
I71
I89
I85
I86
I87
I81
I86
tp14
sI92
g14
sI93
g14
sI94
g14
sI95
g14
sI96
g14
sI97
g14
sI98
g14
sI99
g14
sI100
g14
sI101
g14
sI102
g14
sI103
g14
sI104
g14
sI105
g14
sI106
g14
sI107
g14
sI108
g14
sI109
g14
sI110
g14
sI111
(I108
I105
I110
I103
I102
I99
I105
I102
I110
I103
I108
I105
I110
I103
I102
I99
I105
I102
I110
I103
tp15
sI112
g15
sI113
g15
sI114
g15
sI115
g15
sI116
g15
sI117
g15
sI118
g15
sI119
g15
sI120
g15
sI121
g15
sI122
g15
sI123
g15
sI124
g15
sI125
g15
sI126
g15
sI127
g15
sI128
g15
sI129
g15
sI130
g15
sI131
(I124
I126
I127
I128
I124
I128
I111
I128
I122
I116
I124
I126
I127
I128
I124
I128
I111
I128
I122
I116
tp16
sI132
g16
sI133
g16
sI134
g16
sI135
g16
sI136
g16
sI137
g16
sI138
g16
sI139
g16
sI140
g16
sI141
g16
sI142
g16
sI143
g16
sI144
g16
sI145
g16
sI146
g16
sI147
g16
sI148
g16
sI149
g16
sI150
g16
sI151
(I149
I140
I140
I133
I139
I148
I132
I139
I149
I142
I149
I140
I140
I133
I139
I148
I132
I139
I149
I142
tp17
sI152
g17
sI153
g17
sI154
g17
sI155
g17
sI156
g17
sI157
g17
sI158
g17
sI159
g17
sI160
g17
sI161
g17
sI162
g17
sI163
g17
sI164
g17
sI165
g17
sI166
g17
sI167
g17
sI168
g17
sI169
g17
sI170
g17
sI171
(I154
I168
I161
I166
I164
I162
I162
I170
I154
I162
I154
I168
I161
I166
I164
I162
I162
I170
I154
I162
tp18
sI172
g18
sI173
g18
sI174
g18
sI175
g18
sI176
g18
sI177
g18
sI178
g18
sI179
g18
sI180
g18
sI181
g18
sI182
g18
sI183
g18
sI184
g18
sI185
g18
sI186
g18
sI187
g18
sI188
g18
sI189
g18
sI190
g18
ssS'genealogy_index'
p19
I190
sS'genealogy_history'
p20
(dp21
I1
g2
(cbluepyopt.deapext.optimisations
WSListIndividual
p22
c__builtin__
list
p23
(lp24
F1.6898967434790517
aF8.535363874597433
aF7.7322363421754945
aF0.002550764750491643
aF0.024771804811088337
aF0.4494911198396317
atp25
Rp26
(dp27
S'history_index'
p28
I1
sS'fitness'
p29
g2
(cbluepyopt.deapext.optimisations
WeightedSumFitness
p30
g4
Ntp31
Rp32
(dp33
S'weights'
p34
(lp35
F-1.0
aF-1.0
aF-1.0
aF-1.0
aF-1.0
aF-1.0
aF-1.0
aF-1.0
aF-1.0
aF-1.0
aF-1.0
aF-1.0
aF-1.0
aF-1.0
aF-1.0
aF-1.0
aF-1.0
asS'wvalues'
p36
(F-15.0
F-0.03565718427088841
F-60.51911498643603
F-250.0
F-3.4718523849278355
F-0.5718961756197792
F-250.0
F-250.0
F-0.6689225143550124
F-250.0
F-77.86351253762268
F-1.3412816691506637
F-61.163122327303675
F-6.666666666666666
F-0.8769804211254433
F-3.358089099367178
F-21.09424920128205
tp37
sbsbsI2
g2
(g22
g23
(lp38
F6.655292538138524
aF7.9717441709009265
aF1.301052033032655
aF0.0002835719304724109
aF0.0417882716194831
aF0.4327671246283466
atp39
Rp40
(dp41
g28
I2
sg29
g2
(g30
g4
Ntp42
Rp43
(dp44
g34
(lp45
F-1.0
aF-1.0
aF-1.0
aF-1.0
aF-1.0
aF-1.0
aF-1.0
aF-1.0
aF-1.0
aF-1.0
aF-1.0
aF-1.0
aF-1.0
aF-1.0
aF-1.0
aF-1.0
aF-1.0
asg36
(F-10.0
F-7.669511097871501
F-7.95663142516748
F-250.0
F-14.05840914298896
F-0.5687486528040766
F-250.0
F-250.0
F-0.7069415166146372
F-157.0979443772672
F-13.90313550824237
F-14.485842026827166
F-36.11258121303774
F-6.666666666666666
F-0.9145902297416454
F-3.3581654133420544
F-13.147309536494435
tp46
sbsbsI3
g2
(g22
g23
(lp47
F7.717888791596243
aF0.4202181121706627
aF4.675717062926094
aF0.007215428169404592
aF0.011438188187300505
aF0.9452707010268527
atp48
Rp49
(dp50
g28
I3
sg29
g2
(g30
g4
Ntp51
Rp52
(dp53
g34
(lp54
F-1.0
aF-1.0
aF-1.0
aF-1.0
aF-1.0
aF-1.0
aF-1.0
aF-1.0
aF-1.0
aF-1.0
aF-1.0
aF-1.0
aF-1.0
aF-1.0
aF-1.0
aF-1.0
aF-1.0
asg36
(F-20.0
F-0.8052099506028875
F-40.221406173370404
F-250.0
F-4.9882410494609974
F-0.6098704932263947
F-250.0
F-250.0
F-0.39681782054660136
F-250.0
F-52.4502517362551
F-250.0
F-250.0
F-250.0
F-0.6078043552250332
F-3.356110180527285
F-250.0
tp55
sbsbsI4
g2
(g22
g23
(lp56
F9.053703593070242
aF0.693663837122114
aF0.6442802655372237
aF0.005414170586687687
aF0.04695746422400925
aF0.3812042995677887
atp57
Rp58
(dp59
g28
I4
sg29
g2
(g30
g4
Ntp60
Rp61
(dp62
g34
(lp63
F-1.0
aF-1.0
aF-1.0
aF-1.0
aF-1.0
aF-1.0
aF-1.0
aF-1.0
aF-1.0
aF-1.0
aF-1.0
aF-1.0
aF-1.0
aF-1.0
aF-1.0
aF-1.0
aF-1.0
asg36
(F-10.0
F-8.001526610133785
F-6.798196065355609
F-250.0
F-14.517785144764193
F-0.570011704072944
F-250.0
F-250.0
F-0.7261461656471853
F-215.98548972182033
F-12.688835072116072
F-14.605067064085004
F-44.65318587618666
F-8.88888888887373
F-0.9335881816006428
F-3.358445699246748
F-14.82342287956396
tp64
sbsbsI5
g2
(g22
g23
(lp65
F2.479354212453888
aF4.452319125594086
aF0.6787915607187323
aF0.0022169944935637232
aF0.021894435893769236
aF0.4958122918006265
atp66
Rp67
(dp68
g28
I5
sg29
g2
(g30
g4
Ntp69
Rp70
(dp71
g34
(lp72
F-1.0
aF-1.0
aF-1.0
aF-1.0
aF-1.0
aF-1.0
aF-1.0
aF-1.0
aF-1.0
aF-1.0
aF-1.0
aF-1.0
aF-1.0
aF-1.0
aF-1.0
aF-1.0
aF-1.0
asg36
(F-15.0
F-10.294116524809501
F-7.79991406650614
F-250.0
F-17.797147237131544
F-0.575157392394988
F-250.0
F-250.0
F-0.6452953626693807
F-250.0
F-3.5772241153685176
F-17.37704918032971
F-17.675538444671073
F-2.2222222222222223
F-0.8536075654420034
F-3.3579230996210967
F-272.3295454547774
tp73
sbsbsI6
g2
(g22
g23
(lp74
F2.6376107224726972
aF2.616318798793449
aF2.5002979584418106
aF0.004596088697030763
aF0.01448915175136282
aF0.02148980311693835
atp75
Rp76
(dp77
g28
I6
sg29
g2
(g30
g4
Ntp78
Rp79
(dp80
g34
(lp81
F-1.0
aF-1.0
aF-1.0
aF-1.0
aF-1.0
aF-1.0
aF-1.0
aF-1.0
aF-1.0
aF-1.0
aF-1.0
aF-1.0
aF-1.0
aF-1.0
aF-1.0
aF-1.0
aF-1.0
asg36
(F-15.0
F-8.531358659803542
F-11.266356935898898
F-250.0
F-14.40006503582725
F-0.54332473939787
F-250.0
F-250.0
F-0.9228232972550451
F-250.0
F-15.855663852442527
F-15.201192250374188
F-42.98650745305747
F-28.88888888888889
F-1.1281485024749918
F-3.360167180765582
F-139.78260869572046
tp82
sbsbsI7
g2
(g22
g23
(lp83
F8.4407485663607
aF5.741961497463361
aF6.566025884151478
aF0.0018591440683205878
aF0.04962717135446204
aF0.859946542800637
atp84
Rp85
(dp86
g28
I7
sg29
g2
(g30
g4
Ntp87
Rp88
(dp89
g34
(lp90
F-1.0
aF-1.0
aF-1.0
aF-1.0
aF-1.0
aF-1.0
aF-1.0
aF-1.0
aF-1.0
aF-1.0
aF-1.0
aF-1.0
aF-1.0
aF-1.0
aF-1.0
aF-1.0
aF-1.0
asg36
(F-10.0
F-1.3445326468528136
F-60.041585934113975
F-250.0
F-1.9362445919275728
F-0.5992506157122152
F-250.0
F-250.0
F-0.4777886006879928
F-7.061668681983071
F-80.27820414939636
F-1.3710879284651227
F-72.7656501223963
F-8.88888888888889
F-0.6879036572484409
F-3.3560574895353756
F-9.501146788991617
tp91
sbsbsI8
g2
(g22
g23
(lp92
F1.5605436141357414
aF3.593873779457239
aF7.3262503127993766
aF0.007111946577775828
aF0.0468220356959143
aF0.4221070577507152
atp93
Rp94
(dp95
g28
I8
sg29
g2
(g30
g4
Ntp96
Rp97
(dp98
g34
(lp99
F-1.0
aF-1.0
aF-1.0
aF-1.0
aF-1.0
aF-1.0
aF-1.0
aF-1.0
aF-1.0
aF-1.0
aF-1.0
aF-1.0
aF-1.0
aF-1.0
aF-1.0
aF-1.0
aF-1.0
asg36
(F-5.0
F-0.6261097661339112
F-55.69646964091524
F-250.0
F-4.254866481818436
F-0.574043743044291
F-12.896013793070233
F-250.0
F-0.6933317811057035
F-50.51995163240627
F-71.70589210768811
F-12.995529061104207
F-13.256925903621381
F-6.666666666666667
F-0.901126974069844
F-3.3580181236709157
F-8.640712393288233
tp100
sbsbsI9
g2
(g22
g23
(lp101
F8.368342655433539
aF6.834933437575082
aF3.312337704956009
aF0.0058758473033749805
aF0.0441239617936928
aF0.8461974338085709
atp102
Rp103
(dp104
g28
I9
sg29
g2
(g30
g4
Ntp105
Rp106
(dp107
g34
(lp108
F-1.0
aF-1.0
aF-1.0
aF-1.0
aF-1.0
aF-1.0
aF-1.0
aF-1.0
aF-1.0
aF-1.0
aF-1.0
aF-1.0
aF-1.0
aF-1.0
aF-1.0
aF-1.0
aF-1.0
asg36
(F-15.0
F-2.4423027995653714
F-29.671632368496933
F-250.0
F-7.162532056428991
F-0.6022095691630469
F-250.0
F-250.0
F-0.4692655300031222
F-250.0
F-40.677588940288516
F-6.169895678093052
F-73.61215735164252
F-6.666666666666666
F-0.6794723192798282
F-3.3560698503607704
F-35.441810344835304
tp109
sbsbsI10
g2
(g22
g23
(lp110
F5.250724677564164
aF6.054421676632496
aF0.7314479694528793
aF0.0024274754614333222
aF0.03987023263729039
aF0.41431405786937436
atp111
Rp112
(dp113
g28
I10
sg29
g2
(g30
g4
Ntp114
Rp115
(dp116
g34
(lp117
F-1.0
aF-1.0
aF-1.0
aF-1.0
aF-1.0
aF-1.0
aF-1.0
aF-1.0
aF-1.0
aF-1.0
aF-1.0
aF-1.0
aF-1.0
aF-1.0
aF-1.0
aF-1.0
aF-1.0
asg36
(F-15.0
F-9.572061657609819
F-0.8803333322507367
F-250.0
F-16.689234183482768
F-0.5695924976327933
F-250.0
F-250.0
F-0.7088424094037143
F-250.0
F-4.124476311064058
F-16.184798807751342
F-17.479298380433697
F-6.666666666666666
F-0.9164706634655213
F-3.3582928467532445
F-180.97656250010877
tp118
sbsbsI11
g2
(g22
g23
(lp119
F1.6898967434790517
aF8.535363874597433
aF7.7322363421754945
aF0.002550764750491643
aF0.024771804811088337
aF0.4494911198396317
atp120
Rp121
(dp122
g28
I11
sg29
g2
(g30
g4
Ntp123
Rp124
(dp125
g34
g35
sg36
g37
sbsbsI12
g2
(g22
g23
(lp126
F6.655292538138524
aF7.9717441709009265
aF1.301052033032655
aF0.0002835719304724109
aF0.0417882716194831
aF0.4327671246283466
atp127
Rp128
(dp129
g28
I12
sg29
g2
(g30
g4
Ntp130
Rp131
(dp132
g34
g45
sg36
g46
sbsbsI13
g2
(g22
g23
(lp133
F7.717888791596243
aF0.4202181121706627
aF4.675717062926094
aF0.007215428169404592
aF0.011438188187300505
aF0.9452707010268527
atp134
Rp135
(dp136
g28
I13
sg29
g2
(g30
g4
Ntp137
Rp138
(dp139
g34
g54
sg36
g55
sbsbsI14
g2
(g22
g23
(lp140
F9.053703593070242
aF0.693663837122114
aF0.6442802655372237
aF0.005414170586687687
aF0.04695746422400925
aF0.3812042995677887
atp141
Rp142
(dp143
g28
I14
sg29
g2
(g30
g4
Ntp144
Rp145
(dp146
g34
g63
sg36
g64
sbsbsI15
g2
(g22
g23
(lp147
F2.479354212453888
aF4.452319125594086
aF0.6787915607187323
aF0.0022169944935637232
aF0.021894435893769236
aF0.4958122918006265
atp148
Rp149
(dp150
g28
I15
sg29
g2
(g30
g4
Ntp151
Rp152
(dp153
g34
g72
sg36
g73
sbsbsI16
g2
(g22
g23
(lp154
F2.6376107224726972
aF2.616318798793449
aF2.5002979584418106
aF0.004596088697030763
aF0.01448915175136282
aF0.02148980311693835
atp155
Rp156
(dp157
g28
I16
sg29
g2
(g30
g4
Ntp158
Rp159
(dp160
g34
g81
sg36
g82
sbsbsI17
g2
(g22
g23
(lp161
F8.4407485663607
aF5.741961497463361
aF6.566025884151478
aF0.0018591440683205878
aF0.04962717135446204
aF0.859946542800637
atp162
Rp163
(dp164
g28
I17
sg29
g2
(g30
g4
Ntp165
Rp166
(dp167
g34
g90
sg36
g91
sbsbsI18
g2
(g22
g23
(lp168
F1.5605436141357414
aF3.593873779457239
aF7.3262503127993766
aF0.007111946577775828
aF0.0468220356959143
aF0.4221070577507152
atp169
Rp170
(dp171
g28
I18
sg29
g2
(g30
g4
Ntp172
Rp173
(dp174
g34
g99
sg36
g100
sbsbsI19
g2
(g22
g23
(lp175
F8.368342655433539
aF6.834933437575082
aF3.312337704956009
aF0.0058758473033749805
aF0.0441239617936928
aF0.8461974338085709
atp176
Rp177
(dp178
g28
I19
sg29
g2
(g30
g4
Ntp179
Rp180
(dp181
g34
g108
sg36
g109
sbsbsI20
g2
(g22
g23
(lp182
F5.250724677564164
aF6.054421676632496
aF0.7314479694528793
aF0.0024274754614333222
aF0.03987023263729039
aF0.41431405786937436
atp183
Rp184
(dp185
g28
I20
sg29
g2
(g30
g4
Ntp186
Rp187
(dp188
g34
g117
sg36
g118
sbsbsI21
g2
(g22
g23
(lp189
F1.2113530771076202
aF8.667674294764197
aF7.7322363421754945
aF0.00030136939163206066
aF0.024771804811088337
aF0.4494911198396317
atp190
Rp191
(dp192
g28
I21
sg29
g2
(g30
g4
Ntp193
Rp194
(dp195
g34
g35
sg36
(F-15.0
F-0.12902935579053082
F-59.86838540496054
F-250.0
F-3.6852087117938264
F-0.5694521986572885
F-250.0
F-250.0
F-0.674547724851993
F-250.0
F-76.37364816245817
F-4.44113263785442
F-44.21361695889095
F-6.666666666666666
F-0.8825450882035683
F-3.357943095852767
F-29.28160919540832
tp196
sbsbsI22
g2
(g22
g23
(lp197
F6.655292538138524
aF7.9717441709009265
aF0.4501881042402506
aF0.0031673823825556216
aF0.03534010144749427
aF0.4327671246283466
atp198
Rp199
(dp200
g28
I22
sg29
g2
(g30
g4
Ntp201
Rp202
(dp203
g34
g45
sg36
(F-10.0
F-9.238681369115941
F-0.17859228102271454
F-250.0
F-16.33937312200661
F-0.5715060036214138
F-250.0
F-250.0
F-0.6909650732834405
F-159.15356711003588
F-5.437459678242858
F-15.707898658719994
F-51.60682544259158
F-2.22222222220959
F-0.8987857388202196
F-3.358236015800484
F-13.187235169491542
tp204
sbsbsI23
g2
(g22
g23
(lp205
F7.955812274430505
aF0.4202181121706627
aF4.162651970372639
aF0.007215428169404592
aF0.011221296925742794
aF0.7029878043989166
atp206
Rp207
(dp208
g28
I23
sg29
g2
(g30
g4
Ntp209
Rp210
(dp211
g34
g54
sg36
(F-20.0
F-1.6493887011441533
F-36.54927141552107
F-250.0
F-6.003024392863222
F-0.5954637626011406
F-250.0
F-250.0
F-0.5121694829518695
F-250.0
F-48.42542105944127
F-250.0
F-250.0
F-250.0
F-0.7219145024876327
F-3.35670951811226
F-250.0
tp212
sbsbsI24
g2
(g22
g23
(lp213
F7.0526400668387605
aF1.9989749978238982
aF0.6442802655372237
aF0.005627364775620524
aF0.045167411721541095
aF0.1285849460744397
atp214
Rp215
(dp216
g28
I24
sg29
g2
(g30
g4
Ntp217
Rp218
(dp219
g34
g63
sg36
(F-15.0
F-9.885310450560238
F-2.6629362050476044
F-250.0
F-16.429800211539025
F-0.5520532475262483
F-250.0
F-250.0
F-0.8870865151762137
F-250.0
F-7.136309758691068
F-16.065573770493504
F-17.910152576616127
F-20.0
F-1.0927963507965897
F-3.3596989489747577
F-174.88636363646583
tp220
sbsbsI25
g2
(g22
g23
(lp221
F2.479354212453888
aF4.900774189753166
aF0.6787653109162933
aF0.0022169944935637232
aF0.02669502870025975
aF0.4958122918006265
atp222
Rp223
(dp224
g28
I25
sg29
g2
(g30
g4
Ntp225
Rp226
(dp227
g34
g72
sg36
(F-15.0
F-10.3180221685297
F-7.751685946283413
F-250.0
F-17.805960023622863
F-0.5749770889441768
F-250.0
F-250.0
F-0.6494884600201292
F-250.0
F-3.4869439880387416
F-17.496274217587544
F-8.90761459968179
F-2.2222222222222223
F-0.8577555330239468
F-3.35789335307834
F-286.2500000002548
tp228
sbsbsI26
g2
(g22
g23
(lp229
F2.940299655623448
aF2.7588240998593214
aF2.7640098748139708
aF0.004138954115171498
aF0.02169187720542049
aF0.02148980311693835
atp230
Rp231
(dp232
g28
I26
sg29
g2
(g30
g4
Ntp233
Rp234
(dp235
g34
g81
sg36
(F-15.0
F-7.8715665550232075
F-14.570408686463297
F-250.0
F-13.454721424744207
F-0.5429228870344057
F-250.0
F-250.0
F-0.9347370174762367
F-250.0
F-21.486979648340828
F-15.409836065575401
F-25.74259186733066
F-33.333333333333336
F-1.1399339968539917
F-3.360232374505823
F-147.04545454552928
tp236
sbsbsI27
g2
(g22
g23
(lp237
F8.4407485663607
aF7.40826081394746
aF6.566025884151478
aF0.0013399332160222222
aF0.04990696731896817
aF0.9240217710462983
atp238
Rp239
(dp240
g28
I27
sg29
g2
(g30
g4
Ntp241
Rp242
(dp243
g34
g90
sg36
(F-10.0
F-1.4238666925374428
F-60.378933790067336
F-250.0
F-1.8565042130139844
F-0.6031813233482469
F-250.0
F-250.0
F-0.4465267153312693
F-17.194679564691654
F-80.43982099242204
F-1.6393442622952554
F-75.69422773463481
F-11.11111111111111
F-0.6569782395528629
F-3.3557867255147373
F-2.725265017668242
tp244
sbsbsI28
g2
(g22
g23
(lp245
F1.5605436141357414
aF4.687277761993222
aF7.3262503127993766
aF0.007111946577775828
aF0.0468220356959143
aF0.38952038461623756
atp246
Rp247
(dp248
g28
I28
sg29
g2
(g30
g4
Ntp249
Rp250
(dp251
g34
g99
sg36
(F-5.0
F-0.6592370455013538
F-56.20416552810468
F-20.491438100193488
F-4.257016628891486
F-0.5719187918036429
F-9.859437006749022
F-19.180500245831727
F-0.7131162330117116
F-2.0314389359129383
F-71.88999142486556
F-13.144560357676504
F-10.341768748375511
F-4.000000000004042
F-0.9206984884583639
F-3.3585372781926304
F-5.10077609173893
tp252
sbsbsI29
g2
(g22
g23
(lp253
F5.531786269441057
aF6.043733415461663
aF3.659080543241897
aF0.0024838513579583305
aF0.047675587365539576
aF0.8461974338085709
atp254
Rp255
(dp256
g28
I29
sg29
g2
(g30
g4
Ntp257
Rp258
(dp259
g34
g108
sg36
(F-15.0
F-3.1634148545460588
F-27.11503641252564
F-250.0
F-8.170761420347585
F-0.6001843821082727
F-250.0
F-250.0
F-0.4820397198008305
F-250.0
F-35.820059890512965
F-10.044709388972747
F-38.25062129638801
F-2.2222222222222223
F-0.6921090221116925
F-3.356033539945667
F-57.020958083847646
tp260
sbsbsI30
g2
(g22
g23
(lp261
F7.725619554084025
aF6.054421676632496
aF0.7351834996752842
aF0.00507291427288525
aF0.03987023263729039
aF0.41431405786937436
atp262
Rp263
(dp264
g28
I30
sg29
g2
(g30
g4
Ntp265
Rp266
(dp267
g34
g117
sg36
(F-10.0
F-8.260864366951612
F-5.106310358036794
F-250.0
F-14.947025246477011
F-0.5719628708427853
F-250.0
F-250.0
F-0.7000430059310508
F-162.80532043530286
F-10.108360535080378
F-14.694485842028381
F-49.842349216018505
F-4.444444444431812
F-0.9077659668434568
F-3.3583218548538016
F-13.350135711515927
tp268
sbsbsI31
g2
(g22
g23
(lp269
F8.368342655433539
aF6.834933437575082
aF3.312337704956009
aF0.0058758473033749805
aF0.0441239617936928
aF0.8461974338085709
atp270
Rp271
(dp272
g28
I31
sS'ibea_fitness'
p273
cnumpy.core.multiarray
scalar
p274
(cnumpy
dtype
p275
(S'f8'
p276
I0
I1
tp277
Rp278
(I3
S'<'
p279
NNNI-1
I-1
I0
tp280
bS'\xc84a\xf9\xd2\xfb\xcb?'
p281
tp282
Rp283
sg29
g2
(g30
g4
Ntp284
Rp285
(dp286
g34
g108
sg36
g109
sbsbsI32
g2
(g22
g23
(lp287
F7.0526400668387605
aF1.9989749978238982
aF0.6442802655372237
aF0.005627364775620524
aF0.045167411721541095
aF0.1285849460744397
atp288
Rp289
(dp290
g28
I32
sg273
g274
(g278
S'\xd0\xfa\xc6?\x84\xd2\xb9?'
p291
tp292
Rp293
sg29
g2
(g30
g4
Ntp294
Rp295
(dp296
g34
g63
sg36
g220
sbsbsI33
g2
(g22
g23
(lp297
F5.531786269441057
aF6.043733415461663
aF3.659080543241897
aF0.0024838513579583305
aF0.047675587365539576
aF0.8461974338085709
atp298
Rp299
(dp300
g28
I33
sg273
g274
(g278
S'`E\xb7(\x0cc\xab?'
p301
tp302
Rp303
sg29
g2
(g30
g4
Ntp304
Rp305
(dp306
g34
g108
sg36
g260
sbsbsI34
g2
(g22
g23
(lp307
F2.940299655623448
aF2.7588240998593214
aF2.7640098748139708
aF0.004138954115171498
aF0.02169187720542049
aF0.02148980311693835
atp308
Rp309
(dp310
g28
I34
sg273
g274
(g278
S'HA\xd3\x8a\r\xaf\xd0?'
p311
tp312
Rp313
sg29
g2
(g30
g4
Ntp314
Rp315
(dp316
g34
g81
sg36
g236
sbsbsI35
g2
(g22
g23
(lp317
F7.955812274430505
aF0.4202181121706627
aF4.162651970372639
aF0.007215428169404592
aF0.011221296925742794
aF0.7029878043989166
atp318
Rp319
(dp320
g28
I35
sg273
g274
(g278
S'H\xfe\xf0-\xdc\xe0\xc9?'
p321
tp322
Rp323
sg29
g2
(g30
g4
Ntp324
Rp325
(dp326
g34
g54
sg36
g212
sbsbsI36
g2
(g22
g23
(lp327
F7.717888791596243
aF0.4202181121706627
aF4.675717062926094
aF0.007215428169404592
aF0.011438188187300505
aF0.9452707010268527
atp328
Rp329
(dp330
g28
I36
sg273
g274
(g278
S' \xe6T\x90\xc7\x1b\xb1?'
p331
tp332
Rp333
sg29
g2
(g30
g4
Ntp334
Rp335
(dp336
g34
g54
sg36
g55
sbsbsI37
g2
(g22
g23
(lp337
F1.5605436141357414
aF4.687277761993222
aF7.3262503127993766
aF0.007111946577775828
aF0.0468220356959143
aF0.38952038461623756
atp338
Rp339
(dp340
g28
I37
sg273
g274
(g278
S'\x00\x00\x00\x88_\x06e>'
p341
tp342
Rp343
sg29
g2
(g30
g4
Ntp344
Rp345
(dp346
g34
g99
sg36
g252
sbsbsI38
g2
(g22
g23
(lp347
F8.368342655433539
aF6.834933437575082
aF3.312337704956009
aF0.0058758473033749805
aF0.0441239617936928
aF0.8461974338085709
atp348
Rp349
(dp350
g28
I38
sg273
g274
(g278
S'\xc84a\xf9\xd2\xfb\xcb?'
p351
tp352
Rp353
sg29
g2
(g30
g4
Ntp354
Rp355
(dp356
g34
g108
sg36
g109
sbsbsI39
g2
(g22
g23
(lp357
F7.0526400668387605
aF1.9989749978238982
aF0.6442802655372237
aF0.005627364775620524
aF0.045167411721541095
aF0.1285849460744397
atp358
Rp359
(dp360
g28
I39
sg273
g274
(g278
S'\xd0\xfa\xc6?\x84\xd2\xb9?'
p361
tp362
Rp363
sg29
g2
(g30
g4
Ntp364
Rp365
(dp366
g34
g63
sg36
g220
sbsbsI40
g2
(g22
g23
(lp367
F5.531786269441057
aF6.043733415461663
aF3.659080543241897
aF0.0024838513579583305
aF0.047675587365539576
aF0.8461974338085709
atp368
Rp369
(dp370
g28
I40
sg273
g274
(g278
S'`E\xb7(\x0cc\xab?'
p371
tp372
Rp373
sg29
g2
(g30
g4
Ntp374
Rp375
(dp376
g34
g108
sg36
g260
sbsbsI41
g2
(g22
g23
(lp377
F7.08699132818459
aF5.315462959575653
aF3.3638505397086584
aF0.006657219538667518
aF0.04822937618407422
aF0.8121609974369784
atp378
Rp379
(dp380
g28
I41
sg273
g274
(g278
S'\xc84a\xf9\xd2\xfb\xcb?'
p381
tp382
Rp383
sg29
g2
(g30
g4
Ntp384
Rp385
(dp386
g34
g108
sg36
(F-15.0
F-3.000066353393497
F-27.95420068805959
F-250.0
F-7.915907141545226
F-0.6008137999999299
F-250.0
F-250.0
F-0.4859816868685975
F-250.0
F-36.848868557151
F-9.538002980626942
F-50.48120065265831
F-2.2222222222222223
F-0.6960085622936696
F-3.3557983470716217
F-53.2905982906121
tp387
sbsbsI42
g2
(g22
g23
(lp388
F9.596864585373492
aF2.6755334584557606
aF0.6113336239479916
aF0.005609598556000243
aF0.03736886817036017
aF0.16307443836725038
atp389
Rp390
(dp391
g28
I42
sg273
g274
(g278
S'\xd0\xfa\xc6?\x84\xd2\xb9?'
p392
tp393
Rp394
sg29
g2
(g30
g4
Ntp395
Rp396
(dp397
g34
g63
sg36
(F-5.0
F-8.242126073868617
F-8.451780753262307
F-250.0
F-14.448166796461393
F-0.5545897165464638
F-12.566308496325107
F-250.0
F-0.8531463988460081
F-138.9600967351874
F-13.652869870165011
F-14.485842026827166
F-69.19344641212344
F-5.185185185176764
F-1.0592215275838759
F-3.3595122540127957
F-12.081366714547572
tp398
sbsbsI43
g2
(g22
g23
(lp399
F7.007932081103776
aF7.4236118562511795
aF3.2721069793135973
aF0.00408937391855212
aF0.04793798641234371
aF0.962593238257451
atp400
Rp401
(dp402
g28
I43
sg273
g274
(g278
S'`E\xb7(\x0cc\xab?'
p403
tp404
Rp405
sg29
g2
(g30
g4
Ntp406
Rp407
(dp408
g34
g108
sg36
(F-15.0
F-2.8951934827407264
F-26.573243359996997
F-250.0
F-7.942480905452712
F-0.6093923109738848
F-250.0
F-250.0
F-0.4213964030508104
F-250.0
F-36.31285279110405
F-7.242921013413583
F-55.21525554699693
F-2.2222222222222223
F-0.6321184015992202
F-3.3554403107696893
F-40.10514018692503
tp409
sbsbsI44
g2
(g22
g23
(lp410
F2.7205395240283887
aF2.7588240998593214
aF2.64451201266619
aF0.003031074357636523
aF0.021256566211881413
aF0.00021758312696624842
atp411
Rp412
(dp413
g28
I44
sg273
g274
(g278
S'HA\xd3\x8a\r\xaf\xd0?'
p414
tp415
Rp416
sg29
g2
(g30
g4
Ntp417
Rp418
(dp419
g34
g81
sg36
(F-15.0
F-8.322144193242895
F-13.105120962920765
F-250.0
F-14.007610872758915
F-0.5398582106501288
F-250.0
F-250.0
F-0.9531907764079772
F-250.0
F-17.909173866459046
F-15.707898658719994
F-17.317098672637254
F-37.77777777777778
F-1.1581891403459958
F-3.361416270791247
F-158.64583333341898
tp420
sbsbsI45
g2
(g22
g23
(lp421
F7.950862248929898
aF0.4202181121706627
aF4.162651970372639
aF0.007215428169404592
aF0.010248176330503189
aF0.6446010890178909
atp422
Rp423
(dp424
g28
I45
sg273
g274
(g278
S'H\xfe\xf0-\xdc\xe0\xc9?'
p425
tp426
Rp427
sg29
g2
(g30
g4
Ntp428
Rp429
(dp430
g34
g54
sg36
(F-20.0
F-1.7312450542022189
F-37.06762695914966
F-250.0
F-6.0624725196865255
F-0.5903676238262208
F-250.0
F-250.0
F-0.5408298708681186
F-250.0
F-48.367755556992904
F-250.0
F-250.0
F-250.0
F-0.7502664223259119
F-3.357183489500546
F-250.0
tp431
sbsbsI46
g2
(g22
g23
(lp432
F7.72283881709685
aF0.5521563077063796
aF4.3818147630273
aF0.006032181229280915
aF0.01607531107034413
aF0.9254300065852167
atp433
Rp434
(dp435
g28
I46
sg273
g274
(g278
S' \xe6T\x90\xc7\x1b\xb1?'
p436
tp437
Rp438
sg29
g2
(g30
g4
Ntp439
Rp440
(dp441
g34
g54
sg36
(F-20.0
F-1.205480880325948
F-37.343460056942476
F-250.0
F-5.528568237702482
F-0.6087881522950523
F-250.0
F-250.0
F-0.4123832292379629
F-250.0
F-49.20379281859695
F-250.0
F-250.0
F-250.0
F-0.623202235419716
F-3.3557574312441703
F-250.0
tp442
sbsbsI47
g2
(g22
g23
(lp443
F0.435124926205648
aF4.687277761993222
aF7.342152920122563
aF0.007017907961831535
aF0.047781118560259066
aF0.381871959326182
atp444
Rp445
(dp446
g28
I47
sg273
g274
(g278
S'\x00\x00\x00\x88_\x06e>'
p447
tp448
Rp449
sg29
g2
(g30
g4
Ntp450
Rp451
(dp452
g34
g99
sg36
(F-20.0
F-1.0536722268391407
F-54.88374083881858
F-21.999052631400332
F-4.76039230226929
F-0.5724688089339575
F-5.400690337352036
F-10.830829851656006
F-0.7195720528940195
F-14.365175332527206
F-68.86150441592164
F-14.36661698956933
F-26.315126145575718
F-7.222222222226011
F-0.9270848251795704
F-3.3589509221464953
F-2.5386047530434275
tp453
sbsbsI48
g2
(g22
g23
(lp454
F8.330654817226373
aF6.667977733656982
aF3.2964309767482587
aF0.005969885919197765
aF0.0441239617936928
aF0.8785777480414686
atp455
Rp456
(dp457
g28
I48
sg273
g274
(g278
S'\xc84a\xf9\xd2\xfb\xcb?'
p458
tp459
Rp460
sg29
g2
(g30
g4
Ntp461
Rp462
(dp463
g34
g108
sg36
(F-15.0
F-2.440857880042133
F-29.57322732382721
F-250.0
F-7.191763228726507
F-0.6045006501047822
F-250.0
F-250.0
F-0.45329326555740923
F-250.0
F-40.39401761396242
F-5.186289120715899
F-74.68205460148086
F-6.666666666666666
F-0.6636719622670779
F-3.3559017918367773
F-31.760563380288367
tp464
sbsbsI49
g2
(g22
g23
(lp465
F7.039889714520754
aF1.7698636722374732
aF1.35207840465858
aF0.005627364775620524
aF0.046512862700027476
aF0.7553783800786887
atp466
Rp467
(dp468
g28
I49
sg273
g274
(g278
S'\xd0\xfa\xc6?\x84\xd2\xb9?'
p469
tp470
Rp471
sg29
g2
(g30
g4
Ntp472
Rp473
(dp474
g34
g63
sg36
(F-15.0
F-6.74955175184708
F-8.034665923058368
F-250.0
F-13.366679167780852
F-0.5960300172339487
F-250.0
F-250.0
F-0.5174519901123154
F-250.0
F-13.92621510261415
F-13.353204172877717
F-35.50278488729962
F-2.2222222222222223
F-0.7271401547012646
F-3.3566751775145134
F-95.358744394654
tp475
sbsbsI50
g2
(g22
g23
(lp476
F5.564814837867469
aF6.27377358416217
aF3.6049243743358192
aF0.0024838513579583305
aF0.047675587365539576
aF0.2195849494659846
atp477
Rp478
(dp479
g28
I50
sg273
g274
(g278
S'`E\xb7(\x0cc\xab?'
p480
tp481
Rp482
sg29
g2
(g30
g4
Ntp483
Rp484
(dp485
g34
g108
sg36
(F-10.0
F-4.405327057238987
F-28.822143443183283
F-250.0
F-9.07018929045291
F-0.5559296461796353
F-250.0
F-250.0
F-0.8398213487765099
F-157.62998790810144
F-35.8275784957559
F-14.068554396424739
F-21.94310488045602
F-15.555555555535344
F-1.0460398933186508
F-3.359274231890327
F-13.180010604453896
tp486
sbsbsI51
g2
(g22
g23
(lp487
F7.039889714520754
aF1.7698636722374732
aF1.35207840465858
aF0.005627364775620524
aF0.046512862700027476
aF0.7553783800786887
atp488
Rp489
(dp490
g28
I51
sg273
g274
(g278
S'\x00\xe7\x10\x98\xdfYp?'
p491
tp492
Rp493
sg29
g2
(g30
g4
Ntp494
Rp495
(dp496
g34
g63
sg36
g475
sbsbsI52
g2
(g22
g23
(lp497
F9.596864585373492
aF2.6755334584557606
aF0.6113336239479916
aF0.005609598556000243
aF0.03736886817036017
aF0.16307443836725038
atp498
Rp499
(dp500
g28
I52
sg273
g274
(g278
S'\x00\x00\x00!c\xd4s>'
p501
tp502
Rp503
sg29
g2
(g30
g4
Ntp504
Rp505
(dp506
g34
g63
sg36
g398
sbsbsI53
g2
(g22
g23
(lp507
F7.039889714520754
aF1.7698636722374732
aF1.35207840465858
aF0.005627364775620524
aF0.046512862700027476
aF0.7553783800786887
atp508
Rp509
(dp510
g28
I53
sg273
g274
(g278
S'\x00\xe7\x10\x98\xdfYp?'
p511
tp512
Rp513
sg29
g2
(g30
g4
Ntp514
Rp515
(dp516
g34
g63
sg36
g475
sbsbsI54
g2
(g22
g23
(lp517
F1.5605436141357414
aF4.687277761993222
aF7.3262503127993766
aF0.007111946577775828
aF0.0468220356959143
aF0.38952038461623756
atp518
Rp519
(dp520
g28
I54
sg273
g274
(g278
S'\x00\x00\x00\x88_\x06e>'
p521
tp522
Rp523
sg29
g2
(g30
g4
Ntp524
Rp525
(dp526
g34
g99
sg36
g252
sbsbsI55
g2
(g22
g23
(lp527
F2.7205395240283887
aF2.7588240998593214
aF2.64451201266619
aF0.003031074357636523
aF0.021256566211881413
aF0.00021758312696624842
atp528
Rp529
(dp530
g28
I55
sg273
g274
(g278
S'\x8c\xa79a\xe4\x9c\xd8?'
p531
tp532
Rp533
sg29
g2
(g30
g4
Ntp534
Rp535
(dp536
g34
g81
sg36
g420
sbsbsI56
g2
(g22
g23
(lp537
F5.564814837867469
aF6.27377358416217
aF3.6049243743358192
aF0.0024838513579583305
aF0.047675587365539576
aF0.2195849494659846
atp538
Rp539
(dp540
g28
I56
sg273
g274
(g278
S'\x00\x00\xa8\r\xc6\x99,?'
p541
tp542
Rp543
sg29
g2
(g30
g4
Ntp544
Rp545
(dp546
g34
g108
sg36
g486
sbsbsI57
g2
(g22
g23
(lp547
F7.717888791596243
aF0.4202181121706627
aF4.675717062926094
aF0.007215428169404592
aF0.011438188187300505
aF0.9452707010268527
atp548
Rp549
(dp550
g28
I57
sg273
g274
(g278
S'Dd\xe3;\x98]\xe1?'
p551
tp552
Rp553
sg29
g2
(g30
g4
Ntp554
Rp555
(dp556
g34
g54
sg36
g55
sbsbsI58
g2
(g22
g23
(lp557
F7.039889714520754
aF1.7698636722374732
aF1.35207840465858
aF0.005627364775620524
aF0.046512862700027476
aF0.7553783800786887
atp558
Rp559
(dp560
g28
I58
sg273
g274
(g278
S'\x00\xe7\x10\x98\xdfYp?'
p561
tp562
Rp563
sg29
g2
(g30
g4
Ntp564
Rp565
(dp566
g34
g63
sg36
g475
sbsbsI59
g2
(g22
g23
(lp567
F5.564814837867469
aF6.27377358416217
aF3.6049243743358192
aF0.0024838513579583305
aF0.047675587365539576
aF0.2195849494659846
atp568
Rp569
(dp570
g28
I59
sg273
g274
(g278
S'\x00\x00\xa8\r\xc6\x99,?'
p571
tp572
Rp573
sg29
g2
(g30
g4
Ntp574
Rp575
(dp576
g34
g108
sg36
g486
sbsbsI60
g2
(g22
g23
(lp577
F5.564814837867469
aF6.27377358416217
aF3.6049243743358192
aF0.0024838513579583305
aF0.047675587365539576
aF0.2195849494659846
atp578
Rp579
(dp580
g28
I60
sg273
g274
(g278
S'\x00\x00\xa8\r\xc6\x99,?'
p581
tp582
Rp583
sg29
g2
(g30
g4
Ntp584
Rp585
(dp586
g34
g108
sg36
g486
sbsbsI61
g2
(g22
g23
(lp587
F9.671069885663305
aF2.670187816240471
aF1.35207840465858
aF0.005627364775620524
aF0.048549270794494025
aF0.23720402517746234
atp588
Rp589
(dp590
g28
I61
sg273
g274
(g278
S'\x00\xe7\x10\x98\xdfYp?'
p591
tp592
Rp593
sg29
g2
(g30
g4
Ntp594
Rp595
(dp596
g34
g63
sg36
(F-10.0
F-6.526537787952147
F-15.086633144224608
F-250.0
F-12.133344238290174
F-0.559904103304999
F-250.0
F-250.0
F-0.8178670691318911
F-209.60096735181463
F-20.457556420329933
F-13.65126676602231
F-43.140953230260834
F-17.777777777757567
F-1.0243219047690784
F-3.359104626784358
F-14.699701246521814
tp597
sbsbsI62
g2
(g22
g23
(lp598
F6.06159337426584
aF1.7752093189800209
aF0.6113336239479916
aF0.0019917077369689114
aF0.03664473202924542
aF0.8431652555022641
atp599
Rp600
(dp601
g28
I62
sg273
g274
(g278
S'\x00\x00\x00!c\xd4s>'
p602
tp603
Rp604
sg29
g2
(g30
g4
Ntp605
Rp606
(dp607
g34
g63
sg36
(F-15.0
F-8.298502259136267
F-1.1467966133833902
F-250.0
F-15.889910000985767
F-0.5986949701787436
F-250.0
F-250.0
F-0.4768618948755904
F-250.0
F-3.6512785707051822
F-14.843517138600678
F-44.25756134117069
F-2.2222222222222223
F-0.6869869254517996
F-3.3560783032557633
F-128.6994219653769
tp608
sbsbsI63
g2
(g22
g23
(lp609
F7.039889714520754
aF1.7080356789198743
aF1.35207840465858
aF0.0062222318581557695
aF0.046512862700027476
aF0.3676420595983032
atp610
Rp611
(dp612
g28
I63
sg273
g274
(g278
S'\x00\xe7\x10\x98\xdfYp?'
p613
tp614
Rp615
sg29
g2
(g30
g4
Ntp616
Rp617
(dp618
g34
g63
sg36
(F-15.0
F-7.70037315870618
F-8.763152150106551
F-250.0
F-13.974662687401564
F-0.5698240771825173
F-250.0
F-250.0
F-0.7310852672425137
F-250.0
F-14.390816113526668
F-14.694485842028381
F-24.588132837742215
F-6.666666666666666
F-0.9384741242791951
F-3.35851049049636
F-124.52247191016804
tp619
sbsbsI64
g2
(g22
g23
(lp620
F1.8180701060796762
aF4.749208138561695
aF7.3262503127993766
aF0.007111946577775828
aF0.0468220356959143
aF0.7772520463637523
atp621
Rp622
(dp623
g28
I64
sg273
g274
(g278
S'\x00\x00\x00\x88_\x06e>'
p624
tp625
Rp626
sg29
g2
(g30
g4
Ntp627
Rp628
(dp629
g34
g99
sg36
(F-10.0
F-0.059072206655938035
F-55.324685082780036
F-250.0
F-3.761400714338202
F-0.5988442839074442
F-250.0
F-250.0
F-0.5013420904913846
F-1.9830713422007253
F-71.47233173996396
F-8.82265275707992
F-2.398906817658422
F-8.88888888888889
F-0.7112036438630285
F-3.3567320015612125
F-20.070093457945585
tp630
sbsbsI65
g2
(g22
g23
(lp631
F5.493555584546134
aF2.2515104540071413
aF2.613784474070237
aF0.003031074357636523
aF0.021256566211881413
aF0.09508943434164378
atp632
Rp633
(dp634
g28
I65
sg273
g274
(g278
S'\x8c\xa79a\xe4\x9c\xd8?'
p635
tp636
Rp637
sg29
g2
(g30
g4
Ntp638
Rp639
(dp640
g34
g81
sg36
(F-15.0
F-6.573601192356401
F-18.342239908709736
F-250.0
F-11.913494867709664
F-0.5470708019969958
F-250.0
F-250.0
F-0.8874745596868915
F-250.0
F-24.23036143718882
F-13.323397913563259
F-66.18792987716233
F-15.555555555555555
F-1.0931802188339856
F-3.3600600975777777
F-94.84375000003485
tp641
sbsbsI66
g2
(g22
g23
(lp642
F1.1647233976798232
aF6.27377358416217
aF3.6356519132816394
aF0.0021931549683461052
aF0.047675587365539576
aF0.2208959817548899
atp643
Rp644
(dp645
g28
I66
sg273
g274
(g278
S'\x00\x00\xa8\r\xc6\x99,?'
p646
tp647
Rp648
sg29
g2
(g30
g4
Ntp649
Rp650
(dp651
g34
g108
sg36
(F-35.0
F-6.558364499434036
F-20.49083890334438
F-19.543608269112728
F-11.913072347525256
F-0.5553527645418731
F-65.87701325676372
F-17.02130974471277
F-0.8403101777200479
F-3.675937122128174
F-26.611393724869153
F-16.900149031298362
F-35.68593854518119
F-3.0303030303085423
F-1.046523461058987
F-3.3589453496060564
F-9.384735202499277
tp652
sbsbsI67
g2
(g22
g23
(lp653
F7.717888791596243
aF0.8255395345146135
aF4.676636359581581
aF0.006447881555670361
aF0.04620780821364674
aF0.5987675018736869
atp654
Rp655
(dp656
g28
I67
sg273
g274
(g278
S'Dd\xe3;\x98]\xe1?'
p657
tp658
Rp659
sg29
g2
(g30
g4
Ntp660
Rp661
(dp662
g34
g54
sg36
(F-10.0
F-1.3256979079334748
F-41.29291563562128
F-250.0
F-5.346157227009158
F-0.5883602939785486
F-250.0
F-250.0
F-0.5968056738957592
F-158.13784764207435
F-52.867606472998645
F-8.941877794337758
F-60.63837946817971
F-4.444444444431812
F-0.8056397649673493
F-3.3568420740138194
F-13.350135711515927
tp663
sbsbsI68
g2
(g22
g23
(lp664
F7.039889714520754
aF1.7901831089206943
aF1.351682813164892
aF0.005953458893964824
aF0.011635694971228523
aF0.9433230682540459
atp665
Rp666
(dp667
g28
I68
sg273
g274
(g278
S'\x00\xe7\x10\x98\xdfYp?'
p668
tp669
Rp670
sg29
g2
(g30
g4
Ntp671
Rp672
(dp673
g34
g63
sg36
(F-20.0
F-6.201935470821661
F-7.629698658089679
F-250.0
F-13.034992394610057
F-0.6110665924787414
F-250.0
F-250.0
F-0.40119435894780553
F-250.0
F-15.3954041165375
F-250.0
F-250.0
F-250.0
F-0.6121337895049419
F-3.3555853044033848
F-250.0
tp674
sbsbsI69
g2
(g22
g23
(lp675
F5.564814837867469
aF6.386202412750681
aF4.332033407600479
aF0.0024838513579583305
aF0.04412396942220767
aF0.2195849494659846
atp676
Rp677
(dp678
g28
I69
sg273
g274
(g278
S'\x00\x00\xa8\r\xc6\x99,?'
p679
tp680
Rp681
sg29
g2
(g30
g4
Ntp682
Rp683
(dp684
g34
g108
sg36
(F-5.0
F-3.212034072750384
F-36.13948839727237
F-250.0
F-7.475459069789478
F-0.5566975496827827
F-21.34811391805557
F-250.0
F-0.8353137513349295
F-132.86577992744859
F-45.72791083091821
F-13.233979135619881
F-33.74411674901566
F-14.074074074060599
F-1.0415808105700022
F-3.359381994290613
F-11.725635252491012
tp685
sbsbsI70
g2
(g22
g23
(lp686
F5.564814837867469
aF7.562525981179001
aF3.6049243743358192
aF0.0023574642619628443
aF0.047675587365539576
aF0.2195849494659846
atp687
Rp688
(dp689
g28
I70
sg273
g274
(g278
S'\x00\x00\xa8\r\xc6\x99,?'
p690
tp691
Rp692
sg29
g2
(g30
g4
Ntp693
Rp694
(dp695
g34
g108
sg36
(F-5.0
F-4.3682106184601
F-28.881499111686914
F-250.0
F-9.022956586680692
F-0.5563153893451784
F-17.356599160663887
F-250.0
F-0.8405282442278122
F-127.44860943168074
F-35.77218247144927
F-13.979135618481362
F-23.54437626748089
F-12.592592592580802
F-1.0467391805449067
F-3.3592600724751254
F-11.223132036846119
tp696
sbsbsI71
g2
(g22
g23
(lp697
F9.596864585373492
aF2.6755334584557606
aF0.6113336239479916
aF0.005609598556000243
aF0.03736886817036017
aF0.16307443836725038
atp698
Rp699
(dp700
g28
I71
sg273
g274
(g278
S'\x00@bt\xd0\x03E?'
p701
tp702
Rp703
sg29
g2
(g30
g4
Ntp704
Rp705
(dp706
g34
g63
sg36
g398
sbsbsI72
g2
(g22
g23
(lp707
F7.039889714520754
aF1.7901831089206943
aF1.351682813164892
aF0.005953458893964824
aF0.011635694971228523
aF0.9433230682540459
atp708
Rp709
(dp710
g28
I72
sg273
g274
(g278
S'@\x1b\x9d\xe6H\xbb\xaa?'
p711
tp712
Rp713
sg29
g2
(g30
g4
Ntp714
Rp715
(dp716
g34
g63
sg36
g674
sbsbsI73
g2
(g22
g23
(lp717
F1.8180701060796762
aF4.749208138561695
aF7.3262503127993766
aF0.007111946577775828
aF0.0468220356959143
aF0.7772520463637523
atp718
Rp719
(dp720
g28
I73
sg273
g274
(g278
S'\x00\xc8!\xe8\xb9\x05A?'
p721
tp722
Rp723
sg29
g2
(g30
g4
Ntp724
Rp725
(dp726
g34
g99
sg36
g630
sbsbsI74
g2
(g22
g23
(lp727
F7.717888791596243
aF0.4202181121706627
aF4.675717062926094
aF0.007215428169404592
aF0.011438188187300505
aF0.9452707010268527
atp728
Rp729
(dp730
g28
I74
sg273
g274
(g278
S'\x00\xad\xe2\xf6f\xafr?'
p731
tp732
Rp733
sg29
g2
(g30
g4
Ntp734
Rp735
(dp736
g34
g54
sg36
g55
sbsbsI75
g2
(g22
g23
(lp737
F1.8180701060796762
aF4.749208138561695
aF7.3262503127993766
aF0.007111946577775828
aF0.0468220356959143
aF0.7772520463637523
atp738
Rp739
(dp740
g28
I75
sg273
g274
(g278
S'\x00\xc8!\xe8\xb9\x05A?'
p741
tp742
Rp743
sg29
g2
(g30
g4
Ntp744
Rp745
(dp746
g34
g99
sg36
g630
sbsbsI76
g2
(g22
g23
(lp747
F1.1647233976798232
aF6.27377358416217
aF3.6356519132816394
aF0.0021931549683461052
aF0.047675587365539576
aF0.2208959817548899
atp748
Rp749
(dp750
g28
I76
sg273
g274
(g278
S'\x00\x00\xf0\xa6v\x8d\xbd>'
p751
tp752
Rp753
sg29
g2
(g30
g4
Ntp754
Rp755
(dp756
g34
g108
sg36
g652
sbsbsI77
g2
(g22
g23
(lp757
F1.1647233976798232
aF6.27377358416217
aF3.6356519132816394
aF0.0021931549683461052
aF0.047675587365539576
aF0.2208959817548899
atp758
Rp759
(dp760
g28
I77
sg273
g274
(g278
S'\x00\x00\xf0\xa6v\x8d\xbd>'
p761
tp762
Rp763
sg29
g2
(g30
g4
Ntp764
Rp765
(dp766
g34
g108
sg36
g652
sbsbsI78
g2
(g22
g23
(lp767
F1.5605436141357414
aF4.687277761993222
aF7.3262503127993766
aF0.007111946577775828
aF0.0468220356959143
aF0.38952038461623756
atp768
Rp769
(dp770
g28
I78
sg273
g274
(g278
S'\x00\x00\x00\x08<Oe>'
p771
tp772
Rp773
sg29
g2
(g30
g4
Ntp774
Rp775
(dp776
g34
g99
sg36
g252
sbsbsI79
g2
(g22
g23
(lp777
F1.8180701060796762
aF4.749208138561695
aF7.3262503127993766
aF0.007111946577775828
aF0.0468220356959143
aF0.7772520463637523
atp778
Rp779
(dp780
g28
I79
sg273
g274
(g278
S'\x00\xc8!\xe8\xb9\x05A?'
p781
tp782
Rp783
sg29
g2
(g30
g4
Ntp784
Rp785
(dp786
g34
g99
sg36
g630
sbsbsI80
g2
(g22
g23
(lp787
F1.1647233976798232
aF6.27377358416217
aF3.6356519132816394
aF0.0021931549683461052
aF0.047675587365539576
aF0.2208959817548899
atp788
Rp789
(dp790
g28
I80
sg273
g274
(g278
S'\x00\x00\xf0\xa6v\x8d\xbd>'
p791
tp792
Rp793
sg29
g2
(g30
g4
Ntp794
Rp795
(dp796
g34
g108
sg36
g652
sbsbsI81
g2
(g22
g23
(lp797
F7.126224741562793
aF4.143422511806525
aF0.6113336239479916
aF0.005606327476637409
aF0.030203837877883912
aF0.13126472347976104
atp798
Rp799
(dp800
g28
I81
sg273
g274
(g278
S'\x00@bt\xd0\x03E?'
p801
tp802
Rp803
sg29
g2
(g30
g4
Ntp804
Rp805
(dp806
g34
g63
sg36
(F-10.0
F-9.699517396897528
F-2.54377952134562
F-250.0
F-16.30585513080769
F-0.5522278196830409
F-250.0
F-250.0
F-0.8654425981059384
F-181.49939540505275
F-7.458414630981653
F-15.618479880776617
F-60.58334549894279
F-8.88888888887373
F-1.071385384428793
F-3.359698124932694
F-13.932067460784737
tp807
sbsbsI82
g2
(g22
g23
(lp808
F9.980331835552336
aF1.8396749703086117
aF0.7526058821352473
aF0.006430819452417031
aF0.011635694971228523
aF0.9643733635409826
atp809
Rp810
(dp811
g28
I82
sg273
g274
(g278
S'@\x1b\x9d\xe6H\xbb\xaa?'
p812
tp813
Rp814
sg29
g2
(g30
g4
Ntp815
Rp816
(dp817
g34
g63
sg36
(F-20.0
F-5.810054076110711
F-8.714581767064972
F-250.0
F-12.520373381154132
F-0.6111206353011414
F-250.0
F-250.0
F-0.39029144937612376
F-250.0
F-15.15182182787687
F-250.0
F-250.0
F-250.0
F-0.6013482265501198
F-3.3554235474257945
F-250.0
tp818
sbsbsI83
g2
(g22
g23
(lp819
F1.7732737533884309
aF0.4018778019462249
aF8.058813669432242
aF0.006064789435686842
aF0.04466253087486634
aF0.7772520463637523
atp820
Rp821
(dp822
g28
I83
sg273
g274
(g278
S'\x00\xc8!\xe8\xb9\x05A?'
p823
tp824
Rp825
sg29
g2
(g30
g4
Ntp826
Rp827
(dp828
g34
g99
sg36
(F-15.0
F-0.5458015790925627
F-61.35723399108622
F-250.0
F-2.939292372423665
F-0.5990534763328024
F-250.0
F-250.0
F-0.5017795239911519
F-250.0
F-81.34315344932571
F-6.825633383011155
F-8.539010357016155
F-6.666666666666666
F-0.7116363693221612
F-3.3560023392402494
F-38.20135746607189
tp829
sbsbsI84
g2
(g22
g23
(lp830
F7.623703116407702
aF5.154472641239981
aF4.113166572720764
aF0.007110030885663367
aF0.013480540867087106
aF0.9452707010268527
atp831
Rp832
(dp833
g28
I84
sg273
g274
(g278
S'\x00\xad\xe2\xf6f\xafr?'
p834
tp835
Rp836
sg29
g2
(g30
g4
Ntp837
Rp838
(dp839
g34
g54
sg36
(F-20.0
F-1.4333835488783222
F-35.37157085108141
F-250.0
F-5.902305816054354
F-0.6106222938544922
F-250.0
F-250.0
F-0.3987251240609891
F-250.0
F-46.587735696002326
F-250.0
F-250.0
F-250.0
F-0.6096911306764056
F-3.3554580077759244
F-250.0
tp840
sbsbsI85
g2
(g22
g23
(lp841
F1.2216480176610234
aF8.897038997643385
aF4.0627753392063894
aF0.007111946577775828
aF0.0468220356959143
aF0.7772520463637523
atp842
Rp843
(dp844
g28
I85
sg273
g274
(g278
S'\x00\xc8!\xe8\xb9\x05A?'
p845
tp846
Rp847
sg29
g2
(g30
g4
Ntp848
Rp849
(dp850
g34
g99
sg36
(F-65.0
F-4.353224296255307
F-23.66471656425297
F-19.441265633210513
F-9.837232753572321
F-0.5992147415083082
F-35.87409055943416
F-16.219625629960987
F-0.5031171998695078
F-8.802902055622733
F-32.17545545893
F-14.157973174368117
F-9.853833486657367
F-8.49673202614617
F-0.7129596479666642
F-3.3558236761284084
F-25.649791231743535
tp851
sbsbsI86
g2
(g22
g23
(lp852
F1.761145507281041
aF3.8325641810998454
aF6.936115369234065
aF0.0018879180029735753
aF0.047675587365539576
aF0.3072949717022944
atp853
Rp854
(dp855
g28
I86
sg273
g274
(g278
S'\x00\x00\xf0\xa6v\x8d\xbd>'
p856
tp857
Rp858
sg29
g2
(g30
g4
Ntp859
Rp860
(dp861
g34
g108
sg36
(F-5.0
F-1.2035730517617442
F-53.24936195613465
F-250.0
F-4.883593260964264
F-0.5607194703705664
F-12.40838317634296
F-250.0
F-0.7814537093700729
F-79.83071342200724
F-66.38172537131409
F-14.038748137110279
F-16.031680197680846
F-3.703703703708756
F-0.9883004573264855
F-3.3588932550274313
F-10.025203567273893
tp862
sbsbsI87
g2
(g22
g23
(lp863
F0.9222055657359988
aF5.905842776752355
aF3.958733772620255
aF0.0021931549683461052
aF0.046812756076928516
aF0.3691497148749203
atp864
Rp865
(dp866
g28
I87
sg273
g274
(g278
S'\x00\x00\xf0\xa6v\x8d\xbd>'
p867
tp868
Rp869
sg29
g2
(g30
g4
Ntp870
Rp871
(dp872
g34
g108
sg36
(F-40.0
F-5.696596156388227
F-22.60844652085421
F-19.215357195772505
F-11.015314774113557
F-0.5652582478369229
F-59.0238281417769
F-16.635501383165863
F-0.7442791634035887
F-8.827085852478838
F-27.85067079747667
F-16.453055141581473
F-32.32151494877775
F-6.666666666669193
F-0.9515260162286862
F-3.3585548256906397
F-14.069087297214116
tp873
sbsbsI88
g2
(g22
g23
(lp874
F0.6812553436139362
aF4.687277761993222
aF8.357585646289658
aF0.007111946577775828
aF0.047684866984487304
aF0.38952038461623756
atp875
Rp876
(dp877
g28
I88
sg273
g274
(g278
S'\x00\x00\x00\x08<Oe>'
p878
tp879
Rp880
sg29
g2
(g30
g4
Ntp881
Rp882
(dp883
g34
g99
sg36
(F-15.0
F-0.11140516280070595
F-65.26189899425896
F-19.903343493512697
F-3.2624714742231142
F-0.5715867996061603
F-5.4836149073634415
F-19.344976011215508
F-0.7121099376410166
F-13.567110036275695
F-83.18305337178833
F-13.26378539493434
F-20.758119038457217
F-6.666666666670998
F-0.9197030237156344
F-3.357334021128418
F-0.9343568025367743
tp884
sbsbsI89
g2
(g22
g23
(lp885
F1.8124174039880248
aF4.749208138561695
aF3.6108940653279706
aF0.007111946577775828
aF0.0468220356959143
aF0.7772520463637523
atp886
Rp887
(dp888
g28
I89
sg273
g274
(g278
S'\x00\xc8!\xe8\xb9\x05A?'
p889
tp890
Rp891
sg29
g2
(g30
g4
Ntp892
Rp893
(dp894
g34
g99
sg36
(F-10.0
F-4.966911709307516
F-19.777919670079804
F-250.0
F-10.710175099432364
F-0.5989795425068194
F-250.0
F-250.0
F-0.5023102808459261
F-126.77146311970976
F-27.54721011130096
F-14.217585692997034
F-8.021228871284016
F-8.88888888888889
F-0.7121614137090044
F-3.356328236788382
F-11.7850870190005
tp895
sbsbsI90
g2
(g22
g23
(lp896
F1.1703761249802684
aF7.960669086910135
aF7.39330921971812
aF0.0021310782119353176
aF0.047675587365539576
aF0.2208959817548899
atp897
Rp898
(dp899
g28
I90
sg273
g274
(g278
S'\x00\x00\xf0\xa6v\x8d\xbd>'
p900
tp901
Rp902
sg29
g2
(g30
g4
Ntp903
Rp904
(dp905
g34
g108
sg36
(F-50.0
F-0.9472582875160939
F-57.30318666827396
F-19.581016524153046
F-4.4742308028382825
F-0.5549156567182563
F-12.509369863578351
F-18.130281381868937
F-0.8372888522257744
F-15.840386940749697
F-71.72462265966689
F-14.575260804770544
F-25.721399731750022
F-2.5396825396865097
F-1.0435346537033676
F-3.3594709721004476
F-16.105263157904517
tp906
sbsbsI91
g2
(g22
g23
(lp907
F9.596864585373492
aF2.6755334584557606
aF0.6113336239479916
aF0.005609598556000243
aF0.03736886817036017
aF0.16307443836725038
atp908
Rp909
(dp910
g28
I91
sg273
g274
(g278
S'\x00`V\x90\x15\x1d#?'
p911
tp912
Rp913
sg29
g2
(g30
g4
Ntp914
Rp915
(dp916
g34
g63
sg36
g398
sbsbsI92
g2
(g22
g23
(lp917
F0.6812553436139362
aF4.687277761993222
aF8.357585646289658
aF0.007111946577775828
aF0.047684866984487304
aF0.38952038461623756
atp918
Rp919
(dp920
g28
I92
sg273
g274
(g278
S'\x00nY\xab8\x96m?'
p921
tp922
Rp923
sg29
g2
(g30
g4
Ntp924
Rp925
(dp926
g34
g99
sg36
g884
sbsbsI93
g2
(g22
g23
(lp927
F1.8124174039880248
aF4.749208138561695
aF3.6108940653279706
aF0.007111946577775828
aF0.0468220356959143
aF0.7772520463637523
atp928
Rp929
(dp930
g28
I93
sg273
g274
(g278
S'\x00\xc0\x8eFI\xd7\x13?'
p931
tp932
Rp933
sg29
g2
(g30
g4
Ntp934
Rp935
(dp936
g34
g99
sg36
g895
sbsbsI94
g2
(g22
g23
(lp937
F9.596864585373492
aF2.6755334584557606
aF0.6113336239479916
aF0.005609598556000243
aF0.03736886817036017
aF0.16307443836725038
atp938
Rp939
(dp940
g28
I94
sg273
g274
(g278
S'\x00`V\x90\x15\x1d#?'
p941
tp942
Rp943
sg29
g2
(g30
g4
Ntp944
Rp945
(dp946
g34
g63
sg36
g398
sbsbsI95
g2
(g22
g23
(lp947
F1.8124174039880248
aF4.749208138561695
aF3.6108940653279706
aF0.007111946577775828
aF0.0468220356959143
aF0.7772520463637523
atp948
Rp949
(dp950
g28
I95
sg273
g274
(g278
S'\x00\xc0\x8eFI\xd7\x13?'
p951
tp952
Rp953
sg29
g2
(g30
g4
Ntp954
Rp955
(dp956
g34
g99
sg36
g895
sbsbsI96
g2
(g22
g23
(lp957
F1.2216480176610234
aF8.897038997643385
aF4.0627753392063894
aF0.007111946577775828
aF0.0468220356959143
aF0.7772520463637523
atp958
Rp959
(dp960
g28
I96
sg273
g274
(g278
S'\x00\x00\x04\xc3\x0eH\xe2>'
p961
tp962
Rp963
sg29
g2
(g30
g4
Ntp964
Rp965
(dp966
g34
g99
sg36
g851
sbsbsI97
g2
(g22
g23
(lp967
F1.761145507281041
aF3.8325641810998454
aF6.936115369234065
aF0.0018879180029735753
aF0.047675587365539576
aF0.3072949717022944
atp968
Rp969
(dp970
g28
I97
sg273
g274
(g278
S'\x00\x8f\xf4\x18\xb0\x7f\xa1?'
p971
tp972
Rp973
sg29
g2
(g30
g4
Ntp974
Rp975
(dp976
g34
g108
sg36
g862
sbsbsI98
g2
(g22
g23
(lp977
F0.9222055657359988
aF5.905842776752355
aF3.958733772620255
aF0.0021931549683461052
aF0.046812756076928516
aF0.3691497148749203
atp978
Rp979
(dp980
g28
I98
sg273
g274
(g278
S'@\xb8\xe0$\xa6\xfc\xaa?'
p981
tp982
Rp983
sg29
g2
(g30
g4
Ntp984
Rp985
(dp986
g34
g108
sg36
g873
sbsbsI99
g2
(g22
g23
(lp987
F7.126224741562793
aF4.143422511806525
aF0.6113336239479916
aF0.005606327476637409
aF0.030203837877883912
aF0.13126472347976104
atp988
Rp989
(dp990
g28
I99
sg273
g274
(g278
S'\xd0\xb8\xf3\xf9P\x8d\xc3?'
p991
tp992
Rp993
sg29
g2
(g30
g4
Ntp994
Rp995
(dp996
g34
g63
sg36
g807
sbsbsI100
g2
(g22
g23
(lp997
F1.761145507281041
aF3.8325641810998454
aF6.936115369234065
aF0.0018879180029735753
aF0.047675587365539576
aF0.3072949717022944
atp998
Rp999
(dp1000
g28
I100
sg273
g274
(g278
S'\x00\x8f\xf4\x18\xb0\x7f\xa1?'
p1001
tp1002
Rp1003
sg29
g2
(g30
g4
Ntp1004
Rp1005
(dp1006
g34
g108
sg36
g862
sbsbsI101
g2
(g22
g23
(lp1007
F9.814158033152085
aF3.25971375758859
aF0.5472736603581004
aF0.004384084955303834
aF0.0365311437813655
aF0.09052103471100496
atp1008
Rp1009
(dp1010
g28
I101
sg273
g274
(g278
S'\x00`V\x90\x15\x1d#?'
p1011
tp1012
Rp1013
sg29
g2
(g30
g4
Ntp1014
Rp1015
(dp1016
g34
g63
sg36
(F-0.0
F-8.443705050825239
F-8.5405402822057
F-19.35839413813502
F-14.57316277397298
F-0.548092762271502
F-34.58643832820987
F-19.35839413813502
F-0.9063528920029735
F-108.46432889963724
F-14.380642328247133
F-14.634873323399463
F-73.63731990292604
F-4.4444444444494975
F-1.1118553660814694
F-3.359895485071105
F-9.17070090507014
tp1017
sbsbsI102
g2
(g22
g23
(lp1018
F0.6812553436139362
aF4.687277761993222
aF9.977694495508906
aF0.007122282995684532
aF0.047684866984487304
aF0.38952038461623756
atp1019
Rp1020
(dp1021
g28
I102
sg273
g274
(g278
S'\x00nY\xab8\x96m?'
p1022
tp1023
Rp1024
sg29
g2
(g30
g4
Ntp1025
Rp1026
(dp1027
g34
g99
sg36
(F-15.0
F-1.554988030029568
F-80.61085891086202
F-18.310913763252955
F-1.4413999862397506
F-0.5690003257788566
F-4.191605519892021
F-15.798512991673325
F-0.7075424284481401
F-13.712212817412333
F-90.7019778442787
F-12.041728763041514
F-21.144789318349478
F-7.301587301589467
F-0.9151846740381822
F-3.3545343707957476
F-0.6792604501638119
tp1028
sbsbsI103
g2
(g22
g23
(lp1029
F1.8124174039880248
aF5.141316911838292
aF5.811772956009934
aF0.007020570282211216
aF0.041042634989649746
aF0.7772520463637523
atp1030
Rp1031
(dp1032
g28
I103
sg273
g274
(g278
S'\x00\xc0\x8eFI\xd7\x13?'
p1033
tp1034
Rp1035
sg29
g2
(g30
g4
Ntp1036
Rp1037
(dp1038
g34
g99
sg36
(F-15.0
F-1.7303408130397824
F-40.896773786057445
F-250.0
F-6.082950801494535
F-0.598675735075138
F-250.0
F-250.0
F-0.4978028996844953
F-250.0
F-52.431656346640715
F-9.478390461998023
F-8.61269843287493
F-6.666666666666666
F-0.7077025449127101
F-3.3564424782388653
F-52.87535410766238
tp1039
sbsbsI104
g2
(g22
g23
(lp1040
F9.021106448639937
aF4.607416340804898
aF1.1146768064876744
aF0.005700974850697697
aF0.03845541511001641
aF0.16307443836725038
atp1041
Rp1042
(dp1043
g28
I104
sg273
g274
(g278
S'\x00`V\x90\x15\x1d#?'
p1044
tp1045
Rp1046
sg29
g2
(g30
g4
Ntp1047
Rp1048
(dp1049
g34
g63
sg36
(F-5.0
F-7.461557462561761
F-11.877179994871005
F-250.0
F-13.335740645270059
F-0.5546670401169316
F-8.86357130040802
F-250.0
F-0.8543526835850191
F-143.8935912938331
F-17.796934948210854
F-14.00894187779582
F-57.585090510995656
F-12.592592592580802
F-1.060414829235009
F-3.3593831936537226
F-12.205332794665145
tp1050
sbsbsI105
g2
(g22
g23
(lp1051
F1.8124174039880248
aF6.508100376074385
aF3.6108940653279706
aF0.00721045728161866
aF0.047697455649852186
aF0.7212780301768604
atp1052
Rp1053
(dp1054
g28
I105
sg273
g274
(g278
S'\x00\xc0\x8eFI\xd7\x13?'
p1055
tp1056
Rp1057
sg29
g2
(g30
g4
Ntp1058
Rp1059
(dp1060
g34
g99
sg36
(F-5.0
F-5.027956594450656
F-20.169858029769493
F-20.035476049914593
F-10.719496607506834
F-0.5946091049064733
F-17.310738357883373
F-14.83384046348529
F-0.531017061772839
F-8.222490931076178
F-28.17507427196684
F-14.605067064085004
F-6.791540570484457
F-7.555555555555555
F-0.740559227235926
F-3.3566365973636643
F-0.5555555555556164
tp1061
sbsbsI106
g2
(g22
g23
(lp1062
F1.9623543064050484
aF8.897038997643385
aF4.0627753392063894
aF0.007111946577775828
aF0.04570210245848279
aF0.7772520463637523
atp1063
Rp1064
(dp1065
g28
I106
sg273
g274
(g278
S'\x00\x00\x04\xc3\x0eH\xe2>'
p1066
tp1067
Rp1068
sg29
g2
(g30
g4
Ntp1069
Rp1070
(dp1071
g34
g99
sg36
(F-10.0
F-4.0409084539851605
F-25.030388731222335
F-17.910400310181238
F-9.38041744104748
F-0.5982679661051824
F-21.56326624022358
F-16.020655664733734
F-0.5024759148645139
F-7.47279322853688
F-32.054972781648004
F-13.144560357676504
F-3.032487349257669
F-7.407407407407407
F-0.7123252650299013
F-3.3561690054626006
F-27.2018348623857
tp1072
sbsbsI107
g2
(g22
g23
(lp1073
F1.7727826535825202
aF3.831365213902433
aF7.924743723182734
aF0.001682062439493017
aF0.04680005049296877
aF0.3111394017845656
atp1074
Rp1075
(dp1076
g28
I107
sg273
g274
(g278
S'\x00\x8f\xf4\x18\xb0\x7f\xa1?'
p1077
tp1078
Rp1079
sg29
g2
(g30
g4
Ntp1080
Rp1081
(dp1082
g34
g108
sg36
(F-5.0
F-0.10454716171353014
F-63.235749422495545
F-250.0
F-3.4884515461059418
F-0.560724390907677
F-12.457061570432716
F-250.0
F-0.7784111501440709
F-74.48609431680772
F-80.14893717640969
F-13.26378539493434
F-8.947915635619745
F-2.222222222228959
F-0.9852906447750679
F-3.3589108108154813
F-9.797065044949768
tp1083
sbsbsI108
g2
(g22
g23
(lp1084
F0.9105729903628946
aF5.907041747900618
aF3.9455928398240485
aF0.0021931549683461052
aF0.047688292949450366
aF0.4335756245166835
atp1085
Rp1086
(dp1087
g28
I108
sg273
g274
(g278
S'@\xb8\xe0$\xa6\xfc\xaa?'
p1088
tp1089
Rp1090
sg29
g2
(g30
g4
Ntp1091
Rp1092
(dp1093
g34
g108
sg36
(F-45.0
F-5.574096143299071
F-22.22795546392871
F-19.219521826158662
F-10.955298239574804
F-0.5707981537530923
F-62.83056266372735
F-16.35970982858453
F-0.7064365301981089
F-9.69770253929867
F-27.56246820782665
F-16.33383010432364
F-26.26100954163526
F-8.376068376071096
F-0.9140906784291277
F-3.3582229239174093
F-15.426377118651953
tp1094
sbsbsI109
g2
(g22
g23
(lp1095
F0.4587314312386799
aF4.143422511806525
aF0.6113336239479916
aF0.005606327476637409
aF0.030203837877883912
aF0.13892139210334645
atp1096
Rp1097
(dp1098
g28
I109
sg273
g274
(g278
S'\xd0\xb8\xf3\xf9P\x8d\xc3?'
p1099
tp1100
Rp1101
sg29
g2
(g30
g4
Ntp1102
Rp1103
(dp1104
g34
g63
sg36
(F-10.0
F-11.953685927958126
F-12.811075138662707
F-250.0
F-18.584587642404752
F-0.5529555845445856
F-250.0
F-250.0
F-0.8604755693990271
F-159.78234582829504
F-9.979569541928461
F-19.1356184798828
F-60.25803322743499
F-4.444444444444445
F-1.0664718152145767
F-3.3594587260036097
F-13.105989548438995
tp1105
sbsbsI110
g2
(g22
g23
(lp1106
F7.073590592861979
aF3.8325641810998454
aF6.426984471070841
aF0.0018879180029735753
aF0.04191883878882416
aF0.31902249482910655
atp1107
Rp1108
(dp1109
g28
I110
sg273
g274
(g278
S'\x00\x8f\xf4\x18\xb0\x7f\xa1?'
p1110
tp1111
Rp1112
sg29
g2
(g30
g4
Ntp1113
Rp1114
(dp1115
g34
g108
sg36
(F-5.0
F-0.20113942169540602
F-58.73306989028134
F-250.0
F-3.16279578206146
F-0.5619886148866909
F-32.291127090511864
F-250.0
F-0.7674340132989078
F-73.54292623941957
F-73.98808885146575
F-9.508196721312482
F-64.80639563800828
F-5.185185185185185
F-0.9744316534453854
F-3.359335096761999
F-9.338997099046873
tp1116
sbsbsI111
g2
(g22
g23
(lp1117
F0.9105729903628946
aF5.907041747900618
aF3.9455928398240485
aF0.0021931549683461052
aF0.047688292949450366
aF0.4335756245166835
atp1118
Rp1119
(dp1120
g28
I111
sg273
g274
(g278
S'x\xa6\xc5|\x8f\x17\xc4?'
p1121
tp1122
Rp1123
sg29
g2
(g30
g4
Ntp1124
Rp1125
(dp1126
g34
g108
sg36
g1094
sbsbsI112
g2
(g22
g23
(lp1127
F1.8124174039880248
aF6.508100376074385
aF3.6108940653279706
aF0.00721045728161866
aF0.047697455649852186
aF0.7212780301768604
atp1128
Rp1129
(dp1130
g28
I112
sg273
g274
(g278
S'\x00\xc0\x1f8A\x1e\x11?'
p1131
tp1132
Rp1133
sg29
g2
(g30
g4
Ntp1134
Rp1135
(dp1136
g34
g99
sg36
g1061
sbsbsI113
g2
(g22
g23
(lp1137
F7.073590592861979
aF3.8325641810998454
aF6.426984471070841
aF0.0018879180029735753
aF0.04191883878882416
aF0.31902249482910655
atp1138
Rp1139
(dp1140
g28
I113
sg273
g274
(g278
S'\x00=2G6;s?'
p1141
tp1142
Rp1143
sg29
g2
(g30
g4
Ntp1144
Rp1145
(dp1146
g34
g108
sg36
g1116
sbsbsI114
g2
(g22
g23
(lp1147
F1.8124174039880248
aF5.141316911838292
aF5.811772956009934
aF0.007020570282211216
aF0.041042634989649746
aF0.7772520463637523
atp1148
Rp1149
(dp1150
g28
I114
sg273
g274
(g278
S'\x00\x98a?k\x1aG?'
p1151
tp1152
Rp1153
sg29
g2
(g30
g4
Ntp1154
Rp1155
(dp1156
g34
g99
sg36
g1039
sbsbsI115
g2
(g22
g23
(lp1157
F0.6812553436139362
aF4.687277761993222
aF9.977694495508906
aF0.007122282995684532
aF0.047684866984487304
aF0.38952038461623756
atp1158
Rp1159
(dp1160
g28
I115
sg273
g274
(g278
S'\x00@\x06\x9a\xe3\x0f\x10?'
p1161
tp1162
Rp1163
sg29
g2
(g30
g4
Ntp1164
Rp1165
(dp1166
g34
g99
sg36
g1028
sbsbsI116
g2
(g22
g23
(lp1167
F7.126224741562793
aF4.143422511806525
aF0.6113336239479916
aF0.005606327476637409
aF0.030203837877883912
aF0.13126472347976104
atp1168
Rp1169
(dp1170
g28
I116
sg273
g274
(g278
S'\xf82\xb4/u\xb6\xc9?'
p1171
tp1172
Rp1173
sg29
g2
(g30
g4
Ntp1174
Rp1175
(dp1176
g34
g63
sg36
g807
sbsbsI117
g2
(g22
g23
(lp1177
F1.8124174039880248
aF6.508100376074385
aF3.6108940653279706
aF0.00721045728161866
aF0.047697455649852186
aF0.7212780301768604
atp1178
Rp1179
(dp1180
g28
I117
sg273
g274
(g278
S'\x00\xc0\x1f8A\x1e\x11?'
p1181
tp1182
Rp1183
sg29
g2
(g30
g4
Ntp1184
Rp1185
(dp1186
g34
g99
sg36
g1061
sbsbsI118
g2
(g22
g23
(lp1187
F0.6812553436139362
aF4.687277761993222
aF9.977694495508906
aF0.007122282995684532
aF0.047684866984487304
aF0.38952038461623756
atp1188
Rp1189
(dp1190
g28
I118
sg273
g274
(g278
S'\x00@\x06\x9a\xe3\x0f\x10?'
p1191
tp1192
Rp1193
sg29
g2
(g30
g4
Ntp1194
Rp1195
(dp1196
g34
g99
sg36
g1028
sbsbsI119
g2
(g22
g23
(lp1197
F7.073590592861979
aF3.8325641810998454
aF6.426984471070841
aF0.0018879180029735753
aF0.04191883878882416
aF0.31902249482910655
atp1198
Rp1199
(dp1200
g28
I119
sg273
g274
(g278
S'\x00=2G6;s?'
p1201
tp1202
Rp1203
sg29
g2
(g30
g4
Ntp1204
Rp1205
(dp1206
g34
g108
sg36
g1116
sbsbsI120
g2
(g22
g23
(lp1207
F1.8124174039880248
aF5.141316911838292
aF5.811772956009934
aF0.007020570282211216
aF0.041042634989649746
aF0.7772520463637523
atp1208
Rp1209
(dp1210
g28
I120
sg273
g274
(g278
S'\x00\x98a?k\x1aG?'
p1211
tp1212
Rp1213
sg29
g2
(g30
g4
Ntp1214
Rp1215
(dp1216
g34
g99
sg36
g1039
sbsbsI121
g2
(g22
g23
(lp1217
F0.9303527346566011
aF5.9281399942557575
aF3.535532170399731
aF0.0021412565851621247
aF0.04951533234309236
aF0.5441270182133852
atp1218
Rp1219
(dp1220
g28
I121
sg273
g274
(g278
S'x\xa6\xc5|\x8f\x17\xc4?'
p1221
tp1222
Rp1223
sg29
g2
(g30
g4
Ntp1224
Rp1225
(dp1226
g34
g108
sg36
(F-40.0
F-6.017169452461218
F-18.174572283241417
F-19.164142792406363
F-11.807016056359565
F-0.5779348868642438
F-16.251683057987275
F-1.930815843276267
F-0.6443521933732169
F-10.592503022974606
F-24.559182946375863
F-16.363636363638097
F-22.435494292340632
F-7.407407407411196
F-0.8526745473559642
F-3.35772755630182
F-13.093910806181967
tp1227
sbsbsI122
g2
(g22
g23
(lp1228
F1.792642390403585
aF6.487002129719235
aF4.835711055407517
aF0.008240154262012928
aF0.04710788215940695
aF0.7513801657871481
atp1229
Rp1230
(dp1231
g28
I122
sg273
g274
(g278
S'\x00\xc0\x1f8A\x1e\x11?'
p1232
tp1233
Rp1234
sg29
g2
(g30
g4
Ntp1235
Rp1236
(dp1237
g34
g99
sg36
(F-5.0
F-3.0625196774962564
F-32.39507414139597
F-19.731276616393064
F-7.922888660484062
F-0.5986854964948023
F-16.968050946912104
F-16.600858903182534
F-0.5123643010507436
F-6.408706166868198
F-41.10946495997638
F-12.816691505217452
F-4.934630013736283
F-7.555555555558587
F-0.722107223784304
F-3.356420890206451
F-3.026524148851916
tp1238
sbsbsI123
g2
(g22
g23
(lp1239
F7.220362354933945
aF5.105530396148791
aF6.393197320567718
aF0.0038117837212590724
aF0.04191883878882416
aF0.7867015298433673
atp1240
Rp1241
(dp1242
g28
I123
sg273
g274
(g278
S'\x00=2G6;s?'
p1243
tp1244
Rp1245
sg29
g2
(g30
g4
Ntp1246
Rp1247
(dp1248
g34
g108
sg36
(F-20.0
F-0.7460903054431334
F-56.65715926253501
F-250.0
F-2.7066839163515892
F-0.5963042684451173
F-250.0
F-250.0
F-0.5013382660906525
F-250.0
F-74.07375894404261
F-250.0
F-250.0
F-250.0
F-0.7111998606238308
F-3.356340701041048
F-250.0
tp1249
sbsbsI124
g2
(g22
g23
(lp1250
F1.6684818762195976
aF3.8683506968373482
aF6.531091572436609
aF0.007020570282211216
aF0.0472650262540653
aF0.33093841377335736
atp1251
Rp1252
(dp1253
g28
I124
sg273
g274
(g278
S'\x00\x98a?k\x1aG?'
p1254
tp1255
Rp1256
sg29
g2
(g30
g4
Ntp1257
Rp1258
(dp1259
g34
g99
sg36
(F-0.0
F-1.6459741934172332
F-49.784120312322955
F-19.523910560345804
F-5.4977471094375945
F-0.5697513797015193
F-12.126840356699846
F-19.523910560345804
F-0.7505411885538643
F-57.4123337363966
F-60.9947430696206
F-14.157973174368117
F-15.426773499580719
F-3.333333333338386
F-0.9577206440056969
F-3.358626837001558
F-9.68110709987687
tp1260
sbsbsI125
g2
(g22
g23
(lp1261
F5.848390438917097
aF4.687277761993222
aF8.043186374084485
aF0.00602704306268167
aF0.047684866984487304
aF0.3356492813493886
atp1262
Rp1263
(dp1264
g28
I125
sg273
g274
(g278
S'\x00@\x06\x9a\xe3\x0f\x10?'
p1265
tp1266
Rp1267
sg29
g2
(g30
g4
Ntp1268
Rp1269
(dp1270
g34
g99
sg36
(F-0.0
F-1.402313924352955
F-71.77969294793266
F-18.80504060093312
F-1.6339682894243064
F-0.5655234800765084
F-38.8560277531665
F-18.80504060093312
F-0.7459530688995798
F-55.76783555018136
F-86.9253336479202
F-9.62742175857032
F-42.76585410717532
F-7.777777777770199
F-0.9531819056945885
F-3.3565087772828135
F-8.666152659982464
tp1271
sbsbsI126
g2
(g22
g23
(lp1272
F0.45925789759465596
aF4.143422511806525
aF0.6113336239479916
aF0.005606327476637409
aF0.03435054702812643
aF0.14330111524417
atp1273
Rp1274
(dp1275
g28
I126
sg273
g274
(g278
S'\xf82\xb4/u\xb6\xc9?'
p1276
tp1277
Rp1278
sg29
g2
(g30
g4
Ntp1279
Rp1280
(dp1281
g34
g63
sg36
(F-10.0
F-11.97342893106737
F-12.820992611484519
F-250.0
F-18.593034734714912
F-0.5532110304071699
F-250.0
F-250.0
F-0.8626005990985315
F-153.20435308343409
F-9.979126427206253
F-19.16542473919726
F-63.31541034819741
F-4.444444444444445
F-1.06857397349207
F-3.359603822081365
F-12.844228094575826
tp1282
sbsbsI127
g2
(g22
g23
(lp1283
F2.491318638372236
aF6.508100376074385
aF4.777438086112238
aF0.007537685279298151
aF0.047697455649852186
aF0.3636757005540976
atp1284
Rp1285
(dp1286
g28
I127
sg273
g274
(g278
S'\x00\xc0\x1f8A\x1e\x11?'
p1287
tp1288
Rp1289
sg29
g2
(g30
g4
Ntp1290
Rp1291
(dp1292
g34
g99
sg36
(F-10.0
F-3.604728333691596
F-33.88069894922127
F-25.130649418799415
F-8.136513895978805
F-0.5708845129069524
F-44.525893479644864
F-6.871869048073344
F-0.7303344520313346
F-1.9347037484885126
F-41.35375485973463
F-14.545454545456085
F-6.558099574358349
F-2.222222222222222
F-0.9377313899958032
F-3.3585751557269607
F-0.5007305086996046
tp1293
sbsbsI128
g2
(g22
g23
(lp1294
F0.619044812446627
aF5.521643972412585
aF9.986520725624407
aF0.007122282995684532
aF0.047684866984487304
aF0.7831434633662547
atp1295
Rp1296
(dp1297
g28
I128
sg273
g274
(g278
S'\x00@\x06\x9a\xe3\x0f\x10?'
p1298
tp1299
Rp1300
sg29
g2
(g30
g4
Ntp1301
Rp1302
(dp1303
g34
g99
sg36
(F-10.0
F-1.9333974934607656
F-77.09786535168585
F-17.24248111517937
F-1.1282721669460436
F-0.5964289072782853
F-16.657194050595308
F-19.67204104445222
F-0.4953901159773654
F-9.504232164449817
F-91.48453764080419
F-5.90163934426292
F-16.004407473215178
F-8.8888888888931
F-0.705315729687056
F-3.3524503553793665
F-3.476073225561194
tp1304
sbsbsI129
g2
(g22
g23
(lp1305
F7.360392744871388
aF3.5155148139543537
aF5.828438994025397
aF0.006970882964315906
aF0.046271373791757324
aF0.4143249126067819
atp1306
Rp1307
(dp1308
g28
I129
sg273
g274
(g278
S'\x00=2G6;s?'
p1309
tp1310
Rp1311
sg29
g2
(g30
g4
Ntp1312
Rp1313
(dp1314
g34
g108
sg36
(F-5.0
F-0.2464244484453242
F-53.04395378020281
F-250.0
F-3.7805317845025246
F-0.5740179267364259
F-23.816868416234186
F-250.0
F-0.6983080747581069
F-86.33615477629986
F-66.39947473742583
F-9.5678092399414
F-58.21858787518994
F-5.185185185175079
F-0.9060497085121328
F-3.358644367145512
F-10.460444993818841
tp1315
sbsbsI130
g2
(g22
g23
(lp1316
F1.8093937444471888
aF4.791576184721346
aF6.410318433055366
aF0.0019378473433144315
aF0.041933800356693376
aF0.7718670021804321
atp1317
Rp1318
(dp1319
g28
I130
sg273
g274
(g278
S'\x00\x98a?k\x1aG?'
p1320
tp1321
Rp1322
sg29
g2
(g30
g4
Ntp1323
Rp1324
(dp1325
g34
g99
sg36
(F-15.0
F-1.0570875122713417
F-47.331663356428315
F-250.0
F-5.136401567111965
F-0.5936362040667329
F-250.0
F-250.0
F-0.5164258187372706
F-250.0
F-61.02754955996638
F-9.061102831595594
F-7.321344732940973
F-6.666666666666666
F-0.72612502787707
F-3.3563768932049447
F-50.095367847424036
tp1326
sbsbsI131
g2
(g22
g23
(lp1327
F1.6684818762195976
aF3.8683506968373482
aF6.531091572436609
aF0.007020570282211216
aF0.0472650262540653
aF0.33093841377335736
atp1328
Rp1329
(dp1330
g28
I131
sg273
g274
(g278
S'\x80\x07\xce\xf9\x05\xf8\x8d?'
p1331
tp1332
Rp1333
sg29
g2
(g30
g4
Ntp1334
Rp1335
(dp1336
g34
g99
sg36
g1260
sbsbsI132
g2
(g22
g23
(lp1337
F0.45925789759465596
aF4.143422511806525
aF0.6113336239479916
aF0.005606327476637409
aF0.03435054702812643
aF0.14330111524417
atp1338
Rp1339
(dp1340
g28
I132
sg273
g274
(g278
S'\x90O+-\xffG\xba?'
p1341
tp1342
Rp1343
sg29
g2
(g30
g4
Ntp1344
Rp1345
(dp1346
g34
g63
sg36
g1282
sbsbsI133
g2
(g22
g23
(lp1347
F2.491318638372236
aF6.508100376074385
aF4.777438086112238
aF0.007537685279298151
aF0.047697455649852186
aF0.3636757005540976
atp1348
Rp1349
(dp1350
g28
I133
sg273
g274
(g278
S'\x80X\xd3`iX\x83?'
p1351
tp1352
Rp1353
sg29
g2
(g30
g4
Ntp1354
Rp1355
(dp1356
g34
g99
sg36
g1293
sbsbsI134
g2
(g22
g23
(lp1357
F0.619044812446627
aF5.521643972412585
aF9.986520725624407
aF0.007122282995684532
aF0.047684866984487304
aF0.7831434633662547
atp1358
Rp1359
(dp1360
g28
I134
sg273
g274
(g278
S'\x00\x00\xdf,zF\x0f?'
p1361
tp1362
Rp1363
sg29
g2
(g30
g4
Ntp1364
Rp1365
(dp1366
g34
g99
sg36
g1304
sbsbsI135
g2
(g22
g23
(lp1367
F1.6684818762195976
aF3.8683506968373482
aF6.531091572436609
aF0.007020570282211216
aF0.0472650262540653
aF0.33093841377335736
atp1368
Rp1369
(dp1370
g28
I135
sg273
g274
(g278
S'\x80\x07\xce\xf9\x05\xf8\x8d?'
p1371
tp1372
Rp1373
sg29
g2
(g30
g4
Ntp1374
Rp1375
(dp1376
g34
g99
sg36
g1260
sbsbsI136
g2
(g22
g23
(lp1377
F0.619044812446627
aF5.521643972412585
aF9.986520725624407
aF0.007122282995684532
aF0.047684866984487304
aF0.7831434633662547
atp1378
Rp1379
(dp1380
g28
I136
sg273
g274
(g278
S'\x00\x00\xdf,zF\x0f?'
p1381
tp1382
Rp1383
sg29
g2
(g30
g4
Ntp1384
Rp1385
(dp1386
g34
g99
sg36
g1304
sbsbsI137
g2
(g22
g23
(lp1387
F0.9105729903628946
aF5.907041747900618
aF3.9455928398240485
aF0.0021931549683461052
aF0.047688292949450366
aF0.4335756245166835
atp1388
Rp1389
(dp1390
g28
I137
sg273
g274
(g278
S'\x80\xd6\xbf\xdb\xb7\x92\xb5?'
p1391
tp1392
Rp1393
sg29
g2
(g30
g4
Ntp1394
Rp1395
(dp1396
g34
g108
sg36
g1094
sbsbsI138
g2
(g22
g23
(lp1397
F0.619044812446627
aF5.521643972412585
aF9.986520725624407
aF0.007122282995684532
aF0.047684866984487304
aF0.7831434633662547
atp1398
Rp1399
(dp1400
g28
I138
sg273
g274
(g278
S'\x00\x00\xdf,zF\x0f?'
p1401
tp1402
Rp1403
sg29
g2
(g30
g4
Ntp1404
Rp1405
(dp1406
g34
g99
sg36
g1304
sbsbsI139
g2
(g22
g23
(lp1407
F1.792642390403585
aF6.487002129719235
aF4.835711055407517
aF0.008240154262012928
aF0.04710788215940695
aF0.7513801657871481
atp1408
Rp1409
(dp1410
g28
I139
sg273
g274
(g278
S'\xb0\x02\x14m\xe4*\xb2?'
p1411
tp1412
Rp1413
sg29
g2
(g30
g4
Ntp1414
Rp1415
(dp1416
g34
g99
sg36
g1238
sbsbsI140
g2
(g22
g23
(lp1417
F7.126224741562793
aF4.143422511806525
aF0.6113336239479916
aF0.005606327476637409
aF0.030203837877883912
aF0.13126472347976104
atp1418
Rp1419
(dp1420
g28
I140
sg273
g274
(g278
S'\xc0Z\xcf)#\xd5\x95?'
p1421
tp1422
Rp1423
sg29
g2
(g30
g4
Ntp1424
Rp1425
(dp1426
g34
g63
sg36
g807
sbsbsI141
g2
(g22
g23
(lp1427
F1.917214085738022
aF4.581829421619727
aF1.119221960434595
aF0.0074145850939524895
aF0.0472650262540653
aF0.3381965051678281
atp1428
Rp1429
(dp1430
g28
I141
sg273
g274
(g278
S'\x80\x07\xce\xf9\x05\xf8\x8d?'
p1431
tp1432
Rp1433
sg29
g2
(g30
g4
Ntp1434
Rp1435
(dp1436
g34
g99
sg36
(F-10.0
F-10.585699988631415
F-4.516414626670529
F-250.0
F-17.747092708245873
F-0.5689108957367384
F-250.0
F-250.0
F-0.745248320475298
F-153.9782345828295
F-0.027385756329577383
F-17.913561847989975
F-29.934696756084694
F-4.444444444444445
F-0.952484742387177
F-3.35763800059482
F-12.91712555066082
tp1437
sbsbsI142
g2
(g22
g23
(lp1438
F0.4455614222271696
aF4.478526697871512
aF6.780031005044263
aF0.006580210835044312
aF0.036706417948007664
aF0.1499473251532117
atp1439
Rp1440
(dp1441
g28
I142
sg273
g274
(g278
S'\x90O+-\xffG\xba?'
p1442
tp1443
Rp1444
sg29
g2
(g30
g4
Ntp1445
Rp1446
(dp1447
g34
g63
sg36
(F-0.0
F-2.0874075514317427
F-50.32073214489752
F-19.833519351612164
F-5.8931626527275105
F-0.5543426087132639
F-26.223134121550782
F-19.833519351612164
F-0.8560906956368399
F-42.805320435308325
F-62.22320032791533
F-15.08196721311635
F-26.344815003608485
F-2.2222222222272747
F-1.0621341352861058
F-3.3604513210220577
F-7.406682168644167
tp1448
sbsbsI143
g2
(g22
g23
(lp1449
F2.491318638372236
aF6.480191827424927
aF5.5864239524253145
aF0.007119856802338432
aF0.04769952584507017
aF0.8345017386382622
atp1450
Rp1451
(dp1452
g28
I143
sg273
g274
(g278
S'\x80X\xd3`iX\x83?'
p1453
tp1454
Rp1455
sg29
g2
(g30
g4
Ntp1456
Rp1457
(dp1458
g34
g99
sg36
(F-10.0
F-1.6870511869559048
F-39.881571430608474
F-250.0
F-6.04060555308828
F-0.6029063183063879
F-250.0
F-250.0
F-0.47416781554660176
F-3.385731559854897
F-50.55299061652239
F-10.014903129658288
F-10.431701453392682
F-6.666666666666666
F-0.6843218421529743
F-3.356039896591802
F-30.342465753427454
tp1459
sbsbsI144
g2
(g22
g23
(lp1460
F1.5091583418155894
aF6.3002889518757295
aF9.986520725624407
aF0.007540111472644244
aF0.049202568467159154
aF0.3122187966785065
atp1461
Rp1462
(dp1463
g28
I144
sg273
g274
(g278
S'\x00\x00\xdf,zF\x0f?'
p1464
tp1465
Rp1466
sg29
g2
(g30
g4
Ntp1467
Rp1468
(dp1469
g34
g99
sg36
(F-30.0
F-1.7456225337903464
F-82.1881241124739
F-18.92566646599313
F-1.1698522384699328
F-0.562470931048275
F-2.393430766374144
F-16.734513073921995
F-0.7530366159626941
F-14.316807738814994
F-91.19139775127982
F-12.011922503727055
F-12.48263847776907
F-3.555555555559598
F-0.9601892134494927
F-3.3541770971155667
F-6.026912181309965
tp1470
sbsbsI145
g2
(g22
g23
(lp1471
F0.6232358762742082
aF5.221664254286065
aF9.902659457520375
aF0.007020570282211216
aF0.049560055486785264
aF0.39913901353709547
atp1472
Rp1473
(dp1474
g28
I145
sg273
g274
(g278
S'\x80\x07\xce\xf9\x05\xf8\x8d?'
p1475
tp1476
Rp1477
sg29
g2
(g30
g4
Ntp1478
Rp1479
(dp1480
g34
g99
sg36
(F-30.0
F-1.4934518737034117
F-78.67108725375591
F-18.521346672456872
F-1.5218182119608918
F-0.569309068956658
F-3.909427783510749
F-15.620854723522259
F-0.7045205339546403
F-14.824667472793228
F-90.67557299538232
F-12.220566318928269
F-23.959743589850408
F-6.666666666669698
F-0.9121953038074022
F-3.3547848054947123
F-7.445855115763962
tp1481
sbsbsI146
g2
(g22
g23
(lp1482
F0.9096768898786073
aF6.151844424284933
aF6.487872895754128
aF0.007122282995684532
aF0.04789873055452215
aF0.7651345325015102
atp1483
Rp1484
(dp1485
g28
I146
sg273
g274
(g278
S'\x00\x00\xdf,zF\x0f?'
p1486
tp1487
Rp1488
sg29
g2
(g30
g4
Ntp1489
Rp1490
(dp1491
g34
g99
sg36
(F-10.0
F-1.2563115909839107
F-46.07382982953238
F-17.560607339118295
F-5.392454739311102
F-0.5982764349161902
F-23.105108525762926
F-15.851605171900228
F-0.5086359807010638
F-11.801692865779927
F-59.91966849703252
F-11.475409836066788
F-12.140411910774285
F-8.888888888888888
F-0.7184190308681984
F-3.356600949746675
F-4.767329910141148
tp1492
sbsbsI147
g2
(g22
g23
(lp1493
F0.6171300841188213
aF5.907041747900618
aF3.9455928398240485
aF0.0021931549683461052
aF0.044995680262631337
aF0.8588629976825131
atp1494
Rp1495
(dp1496
g28
I147
sg273
g274
(g278
S'\x80\xd6\xbf\xdb\xb7\x92\xb5?'
p1497
tp1498
Rp1499
sg29
g2
(g30
g4
Ntp1500
Rp1501
(dp1502
g34
g108
sg36
(F-5.0
F-4.737243182019144
F-20.992929055636235
F-15.634544950320844
F-10.522133256087407
F-0.5990907422713627
F-24.86034017261497
F-13.353198300053752
F-0.4716386910040841
F-8.125755743651753
F-27.707912685358746
F-14.307004470940411
F-5.037401013664326
F-10.222222222222221
F-0.6818199382534171
F-3.3564596719804767
F-32.180527383367924
tp1503
sbsbsI148
g2
(g22
g23
(lp1504
F0.9124880827727738
aF3.63349301180172
aF9.99520385655342
aF0.007122282995684532
aF0.04768505151461166
aF0.44259672527500443
atp1505
Rp1506
(dp1507
g28
I148
sg273
g274
(g278
S'\x00\x00\xdf,zF\x0f?'
p1508
tp1509
Rp1510
sg29
g2
(g30
g4
Ntp1511
Rp1512
(dp1513
g34
g99
sg36
(F-5.0
F-1.66066227180994
F-80.18699487805696
F-20.079352837420142
F-1.3236670393808572
F-0.5723854669750599
F-11.258449022879958
F-19.769550806278197
F-0.6767146767769125
F-6.094316807738815
F-91.23470639927267
F-11.207153502236656
F-18.928022532294854
F-6.666666666669698
F-0.8846887175029433
F-3.354769603694652
F-6.810397867100867
tp1514
sbsbsI149
g2
(g22
g23
(lp1515
F6.965797575815987
aF6.341479337737321
aF6.751314715618935
aF0.005624475860743378
aF0.04715066670037197
aF0.7513801657871481
atp1516
Rp1517
(dp1518
g28
I149
sg273
g274
(g278
S'\xb0\x02\x14m\xe4*\xb2?'
p1519
tp1520
Rp1521
sg29
g2
(g30
g4
Ntp1522
Rp1523
(dp1524
g34
g99
sg36
(F-5.0
F-0.9913388039955594
F-59.97322285368782
F-250.0
F-2.3519802904205913
F-0.5949661363635832
F-0.4209830832813982
F-250.0
F-0.516259553406253
F-3.43409915356711
F-78.45748153206537
F-4.143070044709828
F-64.05851014064568
F-2.222222222228959
F-0.725960552038478
F-3.3566596496807004
F-10.371179039300706
tp1525
sbsbsI150
g2
(g22
g23
(lp1526
F3.106375707662407
aF4.143422511806525
aF0.6113336239479916
aF0.009307661384285817
aF0.03494188512185607
aF0.06034714492173969
atp1527
Rp1528
(dp1529
g28
I150
sg273
g274
(g278
S'\xc0Z\xcf)#\xd5\x95?'
p1530
tp1531
Rp1532
sg29
g2
(g30
g4
Ntp1533
Rp1534
(dp1535
g34
g63
sg36
(F-15.0
F-11.820369374389573
F-6.866100044916924
F-250.0
F-18.6088858486742
F-0.5508332199494929
F-250.0
F-250.0
F-0.9066276253244723
F-250.0
F-2.6724594482682047
F-17.794336810732137
F-25.929407209525614
F-6.666666666666666
F-1.1121271424834773
F-3.3600020132982293
F-327.63513513546405
tp1536
sbsbsI151
g2
(g22
g23
(lp1537
F6.965797575815987
aF6.341479337737321
aF6.751314715618935
aF0.005624475860743378
aF0.04715066670037197
aF0.7513801657871481
atp1538
Rp1539
(dp1540
g28
I151
sg273
g274
(g278
S'\x00\x80p\x1c\xe8\xc8\n?'
p1541
tp1542
Rp1543
sg29
g2
(g30
g4
Ntp1544
Rp1545
(dp1546
g34
g99
sg36
g1525
sbsbsI152
g2
(g22
g23
(lp1547
F7.126224741562793
aF4.143422511806525
aF0.6113336239479916
aF0.005606327476637409
aF0.030203837877883912
aF0.13126472347976104
atp1548
Rp1549
(dp1550
g28
I152
sg273
g274
(g278
S'\x00N%\x83\x92k\x86?'
p1551
tp1552
Rp1553
sg29
g2
(g30
g4
Ntp1554
Rp1555
(dp1556
g34
g63
sg36
g807
sbsbsI153
g2
(g22
g23
(lp1557
F7.126224741562793
aF4.143422511806525
aF0.6113336239479916
aF0.005606327476637409
aF0.030203837877883912
aF0.13126472347976104
atp1558
Rp1559
(dp1560
g28
I153
sg273
g274
(g278
S'\x00N%\x83\x92k\x86?'
p1561
tp1562
Rp1563
sg29
g2
(g30
g4
Ntp1564
Rp1565
(dp1566
g34
g63
sg36
g807
sbsbsI154
g2
(g22
g23
(lp1567
F2.491318638372236
aF6.508100376074385
aF4.777438086112238
aF0.007537685279298151
aF0.047697455649852186
aF0.3636757005540976
atp1568
Rp1569
(dp1570
g28
I154
sg273
g274
(g278
S'@\x05\x98JN\xad\x98?'
p1571
tp1572
Rp1573
sg29
g2
(g30
g4
Ntp1574
Rp1575
(dp1576
g34
g99
sg36
g1293
sbsbsI155
g2
(g22
g23
(lp1577
F1.792642390403585
aF6.487002129719235
aF4.835711055407517
aF0.008240154262012928
aF0.04710788215940695
aF0.7513801657871481
atp1578
Rp1579
(dp1580
g28
I155
sg273
g274
(g278
S'\x800\x80\xa2Q0\x92?'
p1581
tp1582
Rp1583
sg29
g2
(g30
g4
Ntp1584
Rp1585
(dp1586
g34
g99
sg36
g1238
sbsbsI156
g2
(g22
g23
(lp1587
F0.9124880827727738
aF3.63349301180172
aF9.99520385655342
aF0.007122282995684532
aF0.04768505151461166
aF0.44259672527500443
atp1588
Rp1589
(dp1590
g28
I156
sg273
g274
(g278
S'\x00h\xdb\xcbF\x13E?'
p1591
tp1592
Rp1593
sg29
g2
(g30
g4
Ntp1594
Rp1595
(dp1596
g34
g99
sg36
g1514
sbsbsI157
g2
(g22
g23
(lp1597
F0.45925789759465596
aF4.143422511806525
aF0.6113336239479916
aF0.005606327476637409
aF0.03435054702812643
aF0.14330111524417
atp1598
Rp1599
(dp1600
g28
I157
sg273
g274
(g278
S'\x00\xca_\xfb\x9f\xbdl?'
p1601
tp1602
Rp1603
sg29
g2
(g30
g4
Ntp1604
Rp1605
(dp1606
g34
g63
sg36
g1282
sbsbsI158
g2
(g22
g23
(lp1607
F1.792642390403585
aF6.487002129719235
aF4.835711055407517
aF0.008240154262012928
aF0.04710788215940695
aF0.7513801657871481
atp1608
Rp1609
(dp1610
g28
I158
sg273
g274
(g278
S'\x800\x80\xa2Q0\x92?'
p1611
tp1612
Rp1613
sg29
g2
(g30
g4
Ntp1614
Rp1615
(dp1616
g34
g99
sg36
g1238
sbsbsI159
g2
(g22
g23
(lp1617
F6.965797575815987
aF6.341479337737321
aF6.751314715618935
aF0.005624475860743378
aF0.04715066670037197
aF0.7513801657871481
atp1618
Rp1619
(dp1620
g28
I159
sg273
g274
(g278
S'\x00\x80p\x1c\xe8\xc8\n?'
p1621
tp1622
Rp1623
sg29
g2
(g30
g4
Ntp1624
Rp1625
(dp1626
g34
g99
sg36
g1525
sbsbsI160
g2
(g22
g23
(lp1627
F0.4455614222271696
aF4.478526697871512
aF6.780031005044263
aF0.006580210835044312
aF0.036706417948007664
aF0.1499473251532117
atp1628
Rp1629
(dp1630
g28
I160
sg273
g274
(g278
S'\x00\x1e\x8eY\xa9>}?'
p1631
tp1632
Rp1633
sg29
g2
(g30
g4
Ntp1634
Rp1635
(dp1636
g34
g63
sg36
g1448
sbsbsI161
g2
(g22
g23
(lp1637
F6.963482758016677
aF5.741538771342738
aF8.843238705249215
aF0.005026521880817417
aF0.0305472328885617
aF0.8135839158115244
atp1638
Rp1639
(dp1640
g28
I161
sg273
g274
(g278
S'\x00\x80p\x1c\xe8\xc8\n?'
p1641
tp1642
Rp1643
sg29
g2
(g30
g4
Ntp1644
Rp1645
(dp1646
g34
g99
sg36
(F-20.0
F-2.785686563403563
F-78.66300506724154
F-250.0
F-0.059992241689566336
F-0.5967333817788311
F-250.0
F-250.0
F-0.4738183624792389
F-250.0
F-90.65612199926834
F-250.0
F-250.0
F-250.0
F-0.6839761502041402
F-3.351953486775443
F-250.0
tp1647
sbsbsI162
g2
(g22
g23
(lp1648
F7.128539559362104
aF6.391683945051648
aF0.7773618433688946
aF0.005338243266390394
aF0.04757230201144282
aF0.06993755574254185
atp1649
Rp1650
(dp1651
g28
I162
sg273
g274
(g278
S'\x00N%\x83\x92k\x86?'
p1652
tp1653
Rp1654
sg29
g2
(g30
g4
Ntp1655
Rp1656
(dp1657
g34
g63
sg36
(F-5.0
F-9.638833088883922
F-4.633268273205017
F-250.0
F-15.947901874621024
F-0.5468334302169412
F-46.43775136294571
F-250.0
F-0.9333119487960103
F-190.66505441350694
F-9.553157365865678
F-15.916542473921208
F-14.89729972220428
F-22.962962962930963
F-1.138524266005132
F-3.3599894334802416
F-12.167360194862468
tp1658
sbsbsI163
g2
(g22
g23
(lp1659
F8.640224085128734
aF4.097177152175929
aF0.4340705893381229
aF0.005865437435401968
aF0.027680953798510544
aF0.13126472347976104
atp1660
Rp1661
(dp1662
g28
I163
sg273
g274
(g278
S'\x00N%\x83\x92k\x86?'
p1663
tp1664
Rp1665
sg29
g2
(g30
g4
Ntp1666
Rp1667
(dp1668
g34
g63
sg36
(F-20.0
F-9.162353113983823
F-4.519345189752493
F-250.0
F-15.64584856486531
F-0.5526215558044305
F-250.0
F-250.0
F-0.8616078837753854
F-250.0
F-10.248736788057998
F-250.0
F-250.0
F-250.0
F-1.06759194263658
F-3.3597708118036387
F-250.0
tp1669
sbsbsI164
g2
(g22
g23
(lp1670
F2.491318638372236
aF4.978162140204398
aF4.86114250153432
aF0.007537685279298151
aF0.04943894301737704
aF0.3636757005540976
atp1671
Rp1672
(dp1673
g28
I164
sg273
g274
(g278
S'@\x05\x98JN\xad\x98?'
p1674
tp1675
Rp1676
sg29
g2
(g30
g4
Ntp1677
Rp1678
(dp1679
g34
g99
sg36
(F-0.0
F-3.516176803740838
F-34.259013128687066
F-19.63479921843953
F-8.022217136989667
F-0.5711992658337609
F-13.431293308227037
F-19.63479921843953
F-0.732308187080133
F-53.47037484885125
F-43.212066513411614
F-14.694485842028381
F-9.306868776763672
F-2.2222222222272747
F-0.9396838819875047
F-3.358879157374282
F-8.375508359690834
tp1680
sbsbsI165
g2
(g22
g23
(lp1681
F0.9535201226583196
aF6.272489022779725
aF5.218593904819679
aF0.008197897778381133
aF0.04770246633663508
aF0.7459966463451975
atp1682
Rp1683
(dp1684
g28
I165
sg273
g274
(g278
S'\x800\x80\xa2Q0\x92?'
p1685
tp1686
Rp1687
sg29
g2
(g30
g4
Ntp1688
Rp1689
(dp1690
g34
g99
sg36
(F-20.0
F-2.869051897709113
F-34.05784371195929
F-18.879810115989788
F-7.633197129786744
F-0.598968255480825
F-23.371966729593655
F-11.955020751032736
F-0.5154722489423572
F-11.970979443772672
F-43.520940632104306
F-13.353204172877717
F-12.71995964999603
F-10.000000000002526
F-0.7251817212315148
F-3.357066051292527
F-1.144559745202034
tp1691
sbsbsI166
g2
(g22
g23
(lp1692
F1.7516140624379823
aF3.8480061764773543
aF9.99520385655342
aF0.007164539475567293
aF0.04709046733738233
aF0.4002238411799836
atp1693
Rp1694
(dp1695
g28
I166
sg273
g274
(g278
S'\x00h\xdb\xcbF\x13E?'
p1696
tp1697
Rp1698
sg29
g2
(g30
g4
Ntp1699
Rp1700
(dp1701
g34
g99
sg36
(F-0.0
F-1.8646816027031383
F-81.29907899032143
F-19.97447579855834
F-1.0564614680299653
F-0.5687662141729665
F-12.29766936866325
F-19.97447579855834
F-0.7001265823680891
F-20.53204353083434
F-91.54609749220577
F-10.70044709389085
F-2.2871046026408552
F-5.555555555560608
F-0.9078486437580262
F-3.3536110524158667
F-8.183279742763537
tp1702
sbsbsI167
g2
(g22
g23
(lp1703
F0.4543699405944879
aF4.191473512014361
aF0.5899268984711766
aF0.008225530339673475
aF0.03435054702812643
aF0.1559572508564686
atp1704
Rp1705
(dp1706
g28
I167
sg273
g274
(g278
S'\x00\xca_\xfb\x9f\xbdl?'
p1707
tp1708
Rp1709
sg29
g2
(g30
g4
Ntp1710
Rp1711
(dp1712
g34
g63
sg36
(F-10.0
F-11.874809746300588
F-13.026886557173569
F-250.0
F-18.51216840039484
F-0.5567538440569418
F-250.0
F-250.0
F-0.844224239515631
F-125.683192261185
F-10.110255565883808
F-19.16542473919726
F-60.40995350999792
F-4.444444444444445
F-1.0503953963096444
F-3.359318952726242
F-11.498678122934583
tp1713
sbsbsI168
g2
(g22
g23
(lp1714
F1.6983038578663046
aF6.438951124486673
aF5.544016712414384
aF0.0062349579605675675
aF0.04710788215940695
aF0.46576038060603503
atp1715
Rp1716
(dp1717
g28
I168
sg273
g274
(g278
S'\x800\x80\xa2Q0\x92?'
p1718
tp1719
Rp1720
sg29
g2
(g30
g4
Ntp1721
Rp1722
(dp1723
g34
g99
sg36
(F-20.0
F-2.623738748038165
F-39.497892059039444
F-18.931133991180296
F-6.954109762228096
F-0.5767837550721595
F-59.97979769257831
F-5.862526175382578
F-0.6713591124587641
F-7.980652962515115
F-48.936624242270256
F-14.038748137110279
F-10.136724111239223
F-5.55555555555745
F-0.8793907944364237
F-3.358076688935639
F-5.326113709083909
tp1724
sbsbsI169
g2
(g22
g23
(lp1725
F0.5614133421690348
aF6.341479337737321
aF6.784397263188686
aF0.0041618839563687645
aF0.04990379987610316
aF0.8305373239469264
atp1726
Rp1727
(dp1728
g28
I169
sg273
g274
(g278
S'\x00\x80p\x1c\xe8\xc8\n?'
p1729
tp1730
Rp1731
sg29
g2
(g30
g4
Ntp1732
Rp1733
(dp1734
g34
g99
sg36
(F-25.0
F-0.9614762050224929
F-48.72586318998894
F-17.566357113567772
F-5.039083300030602
F-0.5995902180146805
F-27.21844346808275
F-21.596821669893643
F-0.4857790217909722
F-12.091898428053204
F-61.285776453702915
F-11.147540983607737
F-15.748853872621234
F-10.61728395061953
F-0.6958080784742725
F-3.356325052282095
F-6.9434423367893645
tp1735
sbsbsI170
g2
(g22
g23
(lp1736
F7.023782734375529
aF4.478526697871512
aF6.74694845747451
aF0.00854427766194149
aF0.03699659340173607
aF0.14177181314759102
atp1737
Rp1738
(dp1739
g28
I170
sg273
g274
(g278
S'\x00\x1e\x8eY\xa9>}?'
p1740
tp1741
Rp1742
sg29
g2
(g30
g4
Ntp1743
Rp1744
(dp1745
g34
g63
sg36
(F-10.0
F-0.35847716658068146
F-61.86284305296953
F-19.029855239011834
F-2.8726018235642434
F-0.5551289225400248
F-71.66445112796535
F-17.930694769727
F-0.85114509518242
F-21.717049576783555
F-78.60143696848698
F-9.836065573771533
F-75.29218464557661
F-9.629629629631314
F-1.0572417636948486
F-3.359957638855882
F-2.9353233830814482
tp1746
sbsbsI171
g2
(g22
g23
(lp1747
F2.491318638372236
aF6.508100376074385
aF4.777438086112238
aF0.007537685279298151
aF0.047697455649852186
aF0.3636757005540976
atp1748
Rp1749
(dp1750
g28
I171
sg273
g274
(g278
S'\xc0\x0f\x897\x16\xf2\x94?'
p1751
tp1752
Rp1753
sg29
g2
(g30
g4
Ntp1754
Rp1755
(dp1756
g34
g99
sg36
g1293
sbsbsI172
g2
(g22
g23
(lp1757
F1.6983038578663046
aF6.438951124486673
aF5.544016712414384
aF0.0062349579605675675
aF0.04710788215940695
aF0.46576038060603503
atp1758
Rp1759
(dp1760
g28
I172
sg273
g274
(g278
S'p\xc4\xfc\xe0_\x9e\xba?'
p1761
tp1762
Rp1763
sg29
g2
(g30
g4
Ntp1764
Rp1765
(dp1766
g34
g99
sg36
g1724
sbsbsI173
g2
(g22
g23
(lp1767
F6.963482758016677
aF5.741538771342738
aF8.843238705249215
aF0.005026521880817417
aF0.0305472328885617
aF0.8135839158115244
atp1768
Rp1769
(dp1770
g28
I173
sg273
g274
(g278
S'\x00P\x7f\xc1\xadJ5?'
p1771
tp1772
Rp1773
sg29
g2
(g30
g4
Ntp1774
Rp1775
(dp1776
g34
g99
sg36
g1647
sbsbsI174
g2
(g22
g23
(lp1777
F1.7516140624379823
aF3.8480061764773543
aF9.99520385655342
aF0.007164539475567293
aF0.04709046733738233
aF0.4002238411799836
atp1778
Rp1779
(dp1780
g28
I174
sg273
g274
(g278
S'\x00\xcd\xdb\xb5\x05\xcb\x92?'
p1781
tp1782
Rp1783
sg29
g2
(g30
g4
Ntp1784
Rp1785
(dp1786
g34
g99
sg36
g1702
sbsbsI175
g2
(g22
g23
(lp1787
F2.491318638372236
aF4.978162140204398
aF4.86114250153432
aF0.007537685279298151
aF0.04943894301737704
aF0.3636757005540976
atp1788
Rp1789
(dp1790
g28
I175
sg273
g274
(g278
S'\x00\x8bNp]Pu?'
p1791
tp1792
Rp1793
sg29
g2
(g30
g4
Ntp1794
Rp1795
(dp1796
g34
g99
sg36
g1680
sbsbsI176
g2
(g22
g23
(lp1797
F7.128539559362104
aF6.391683945051648
aF0.7773618433688946
aF0.005338243266390394
aF0.04757230201144282
aF0.06993755574254185
atp1798
Rp1799
(dp1800
g28
I176
sg273
g274
(g278
S'\x00\xe0a\xae({,?'
p1801
tp1802
Rp1803
sg29
g2
(g30
g4
Ntp1804
Rp1805
(dp1806
g34
g63
sg36
g1658
sbsbsI177
g2
(g22
g23
(lp1807
F7.128539559362104
aF6.391683945051648
aF0.7773618433688946
aF0.005338243266390394
aF0.04757230201144282
aF0.06993755574254185
atp1808
Rp1809
(dp1810
g28
I177
sg273
g274
(g278
S'\x00\xe0a\xae({,?'
p1811
tp1812
Rp1813
sg29
g2
(g30
g4
Ntp1814
Rp1815
(dp1816
g34
g63
sg36
g1658
sbsbsI178
g2
(g22
g23
(lp1817
F7.023782734375529
aF4.478526697871512
aF6.74694845747451
aF0.00854427766194149
aF0.03699659340173607
aF0.14177181314759102
atp1818
Rp1819
(dp1820
g28
I178
sg273
g274
(g278
S'\x00x\x1fAX\xe9\xa9?'
p1821
tp1822
Rp1823
sg29
g2
(g30
g4
Ntp1824
Rp1825
(dp1826
g34
g63
sg36
g1746
sbsbsI179
g2
(g22
g23
(lp1827
F2.491318638372236
aF6.508100376074385
aF4.777438086112238
aF0.007537685279298151
aF0.047697455649852186
aF0.3636757005540976
atp1828
Rp1829
(dp1830
g28
I179
sg273
g274
(g278
S'\xc0\x0f\x897\x16\xf2\x94?'
p1831
tp1832
Rp1833
sg29
g2
(g30
g4
Ntp1834
Rp1835
(dp1836
g34
g99
sg36
g1293
sbsbsI180
g2
(g22
g23
(lp1837
F7.128539559362104
aF6.391683945051648
aF0.7773618433688946
aF0.005338243266390394
aF0.04757230201144282
aF0.06993755574254185
atp1838
Rp1839
(dp1840
g28
I180
sg273
g274
(g278
S'\x00\xe0a\xae({,?'
p1841
tp1842
Rp1843
sg29
g2
(g30
g4
Ntp1844
Rp1845
(dp1846
g34
g63
sg36
g1658
sbsbsI181
g2
(g22
g23
(lp1847
F2.2088217586197643
aF7.624888651365346
aF4.777438086112238
aF0.007537685279298151
aF0.047697455649852186
aF0.4499960193525941
atp1848
Rp1849
(dp1850
g28
I181
sg273
g274
(g278
S'\xc0\x0f\x897\x16\xf2\x94?'
p1851
tp1852
Rp1853
sg29
g2
(g30
g4
Ntp1854
Rp1855
(dp1856
g34
g99
sg36
(F-35.0
F-3.5219767214994584
F-32.85415052032428
F-18.906243553333542
F-8.145390898413403
F-0.5776758494290969
F-74.50777625058656
F-15.770429420507567
F-0.6788943110509785
F-7.617896009673518
F-41.049623337529574
F-14.36661698956933
F-5.634603641665941
F-4.242424242427457
F-0.8868448926529678
F-3.358159041078358
F-10.496281926938092
tp1857
sbsbsI182
g2
(g22
g23
(lp1858
F1.6983038578663046
aF6.438951124486673
aF5.544016712414384
aF0.0062349579605675675
aF0.03904559313903053
aF0.3650206734335071
atp1859
Rp1860
(dp1861
g28
I182
sg273
g274
(g278
S'p\xc4\xfc\xe0_\x9e\xba?'
p1862
tp1863
Rp1864
sg29
g2
(g30
g4
Ntp1865
Rp1866
(dp1867
g34
g99
sg36
(F-15.0
F-2.775095490985137
F-39.79539685677302
F-20.17702113457373
F-7.064410900074137
F-0.569712415364854
F-57.78944537222818
F-1.4100856451047665
F-0.7249110331839113
F-4.546553808948005
F-48.910295986792406
F-13.800298062594605
F-2.3348240494669343
F-4.126984126989179
F-0.9323663427096015
F-3.358592181689641
F-1.5326633165782728
tp1868
sbsbsI183
g2
(g22
g23
(lp1869
F6.963482758016677
aF5.741538771342738
aF8.736825308370964
aF0.00677034404336758
aF0.030133668367346673
aF0.7926188073693688
atp1870
Rp1871
(dp1872
g28
I183
sg273
g274
(g278
S'\x00P\x7f\xc1\xadJ5?'
p1873
tp1874
Rp1875
sg29
g2
(g30
g4
Ntp1876
Rp1877
(dp1878
g34
g99
sg36
(F-20.0
F-2.6968280720664137
F-76.76246848190564
F-250.0
F-0.1667038770576352
F-0.5972521009200045
F-250.0
F-250.0
F-0.4777982726713574
F-250.0
F-90.03070244738105
F-250.0
F-250.0
F-250.0
F-0.6879132251334895
F-3.352502311995378
F-250.0
tp1879
sbsbsI184
g2
(g22
g23
(lp1880
F0.9744587159620701
aF3.97237889375891
aF9.99535952522065
aF0.0054207172932872
aF0.04669012830601753
aF0.4002238411799836
atp1881
Rp1882
(dp1883
g28
I184
sg273
g274
(g278
S'\x00\xcd\xdb\xb5\x05\xcb\x92?'
p1884
tp1885
Rp1886
sg29
g2
(g30
g4
Ntp1887
Rp1888
(dp1889
g34
g99
sg36
(F-5.0
F-1.639009606524189
F-80.89288058520468
F-19.915382715849066
F-1.3356474480829932
F-0.5672190839757852
F-10.269421423076336
F-19.87917033811082
F-0.7058613671477212
F-7.448609431680773
F-91.10257655837607
F-11.38599105812341
F-22.036215192703594
F-6.666666666669698
F-0.913521705784857
F-3.3539892811576895
F-5.361898258789117
tp1890
sbsbsI185
g2
(g22
g23
(lp1891
F7.3590359264321235
aF6.467586587389031
aF1.9136205811251927
aF0.007324540337802989
aF0.04943894301737704
aF0.36524991560940506
atp1892
Rp1893
(dp1894
g28
I185
sg273
g274
(g278
S'\x00\x8bNp]Pu?'
p1895
tp1896
Rp1897
sg29
g2
(g30
g4
Ntp1898
Rp1899
(dp1900
g34
g99
sg36
(F-10.0
F-6.249918177438578
F-15.487048212332928
F-250.0
F-11.904422239603866
F-0.5706663191874893
F-250.0
F-250.0
F-0.7320558386531932
F-162.53929866988528
F-22.757441642045652
F-13.889716840537982
F-32.12200123697354
F-11.111111111093425
F-0.9394342495543074
F-3.35847491159509
F-13.363859151296095
tp1901
sbsbsI186
g2
(g22
g23
(lp1902
F2.474727064976604
aF5.195403226599947
aF3.9454485288440617
aF0.005411785048656202
aF0.04757230201144282
aF0.06847896716860652
atp1903
Rp1904
(dp1905
g28
I186
sg273
g274
(g278
S'\x00\xe0a\xae({,?'
p1906
tp1907
Rp1908
sg29
g2
(g30
g4
Ntp1909
Rp1910
(dp1911
g34
g63
sg36
(F-10.0
F-5.769924056066346
F-25.809247264959872
F-250.0
F-10.547284284826953
F-0.5473127085393534
F-250.0
F-250.0
F-0.9346842379800316
F-190.3748488512342
F-32.04893531999902
F-16.184798807751342
F-29.411466865515976
F-11.111111111093425
F-1.1398817854167325
F-3.3601284588221834
F-14.17129262489994
tp1912
sbsbsI187
g2
(g22
g23
(lp1913
F8.977345136001805
aF6.391683945051648
aF0.7773618433688946
aF0.00548300567729359
aF0.03655049536171324
aF0.1455364816311385
atp1914
Rp1915
(dp1916
g28
I187
sg273
g274
(g278
S'\x00\xe0a\xae({,?'
p1917
tp1918
Rp1919
sg29
g2
(g30
g4
Ntp1920
Rp1921
(dp1922
g34
g63
sg36
(F-5.0
F-8.17688640013792
F-8.981610365995902
F-19.806175869552625
F-14.307728433106695
F-0.5531874715150197
F-56.89437497671162
F-1.8128565597164679
F-0.8643943737223131
F-78.13784764207979
F-13.61586480050624
F-14.456035767512708
F-64.5627581016995
F-9.333333333321207
F-1.0703484419497198
F-3.359669829146166
F-5.426580557441584
tp1923
sbsbsI188
g2
(g22
g23
(lp1924
F5.872437984328246
aF4.478526697871512
aF6.226675909882697
aF0.008399460952105501
aF0.048002832875409594
aF0.038239545754622364
atp1925
Rp1926
(dp1927
g28
I188
sg273
g274
(g278
S'\x00x\x1fAX\xe9\xa9?'
p1928
tp1929
Rp1930
sg29
g2
(g30
g4
Ntp1931
Rp1932
(dp1933
g34
g63
sg36
(F-10.0
F-0.860589047984779
F-55.670037902953695
F-250.0
F-4.256606512127601
F-0.5475831589128177
F-250.0
F-250.0
F-0.9411958288903314
F-163.60338573155175
F-68.40308748221037
F-12.846497764531911
F-23.971808641510048
F-39.99999999996716
F-1.146323292909512
F-3.3610923837843476
F-13.430796731358281
tp1934
sbsbsI189
g2
(g22
g23
(lp1935
F2.3944756489850008
aF4.566029528912951
aF0.9481975750724676
aF0.005075486537105371
aF0.04077514034837944
aF0.3276235904526724
atp1936
Rp1937
(dp1938
g28
I189
sg273
g274
(g278
S'\xc0\x0f\x897\x16\xf2\x94?'
p1939
tp1940
Rp1941
sg29
g2
(g30
g4
Ntp1942
Rp1943
(dp1944
g34
g99
sg36
(F-10.0
F-10.689591216939553
F-5.094676242620132
F-250.0
F-17.86994992883351
F-0.5659113870253156
F-250.0
F-250.0
F-0.7535622170005538
F-203.990326481208
F-1.119691765570276
F-17.6751117734743
F-17.49293235305024
F-4.4444444444545494
F-0.9607091575108173
F-3.358713456818872
F-14.491434689506322
tp1945
sbsbsI190
g2
(g22
g23
(lp1946
F6.390060392088809
aF6.531689606477314
aF4.619556657533236
aF0.007800438987562917
aF0.04757539842047931
aF0.07906174331911708
atp1947
Rp1948
(dp1949
g28
I190
sg273
g274
(g278
S'\x00\xe0a\xae({,?'
p1950
tp1951
Rp1952
sg29
g2
(g30
g4
Ntp1953
Rp1954
(dp1955
g34
g63
sg36
(F-5.0
F-2.662358890851822
F-40.943449263303215
F-250.0
F-6.589830900050643
F-0.5503487955909266
F-52.83809683178411
F-250.0
F-0.9167216044783592
F-142.46674727932285
F-50.976963912122386
F-13.233979135619881
F-30.328578859309925
F-33.33333333331312
F-1.1221124814348045
F-3.3600593449555762
F-11.11501266405582
tp1956
sbsbssbsS'parents'
p1957
(lp1958
g2
(g22
g23
(lp1959
F1.7516140624379823
aF3.8480061764773543
aF9.99520385655342
aF0.007164539475567293
aF0.04709046733738233
aF0.4002238411799836
atp1960
Rp1961
(dp1962
g28
I174
sg273
g274
(g278
S'`:\xdc\x0b!r\xad?'
p1963
tp1964
Rp1965
sg29
g2
(g30
g4
Ntp1966
Rp1967
(dp1968
g34
g99
sg36
g1702
sbsbag2
(g22
g23
(lp1969
F6.390060392088809
aF6.531689606477314
aF4.619556657533236
aF0.007800438987562917
aF0.04757539842047931
aF0.07906174331911708
atp1970
Rp1971
(dp1972
g28
I190
sg273
g274
(g278
S'\x004\x98\x82\xa1\xbcm?'
p1973
tp1974
Rp1975
sg29
g2
(g30
g4
Ntp1976
Rp1977
(dp1978
g34
g63
sg36
g1956
sbsbag2
(g22
g23
(lp1979
F2.491318638372236
aF4.978162140204398
aF4.86114250153432
aF0.007537685279298151
aF0.04943894301737704
aF0.3636757005540976
atp1980
Rp1981
(dp1982
g28
I175
sg273
g274
(g278
S'\x00\x1c\x9c\xb0\x85\x02~?'
p1983
tp1984
Rp1985
sg29
g2
(g30
g4
Ntp1986
Rp1987
(dp1988
g34
g99
sg36
g1680
sbsbag2
(g22
g23
(lp1989
F8.977345136001805
aF6.391683945051648
aF0.7773618433688946
aF0.00548300567729359
aF0.03655049536171324
aF0.1455364816311385
atp1990
Rp1991
(dp1992
g28
I187
sg273
g274
(g278
S'\x00\xb6\x00\x97\x1cvh?'
p1993
tp1994
Rp1995
sg29
g2
(g30
g4
Ntp1996
Rp1997
(dp1998
g34
g63
sg36
g1923
sbsbag1971
ag2
(g22
g23
(lp1999
F2.3944756489850008
aF4.566029528912951
aF0.9481975750724676
aF0.005075486537105371
aF0.04077514034837944
aF0.3276235904526724
atp2000
Rp2001
(dp2002
g28
I189
sg273
g274
(g278
S'@\xc5g\xcf!\xc2\x93?'
p2003
tp2004
Rp2005
sg29
g2
(g30
g4
Ntp2006
Rp2007
(dp2008
g34
g99
sg36
g1945
sbsbag1991
ag1991
ag1971
ag2
(g22
g23
(lp2009
F7.3590359264321235
aF6.467586587389031
aF1.9136205811251927
aF0.007324540337802989
aF0.04943894301737704
aF0.36524991560940506
atp2010
Rp2011
(dp2012
g28
I185
sg273
g274
(g278
S'`\xa6-\x8ba\x96\xa0?'
p2013
tp2014
Rp2015
sg29
g2
(g30
g4
Ntp2016
Rp2017
(dp2018
g34
g99
sg36
g1901
sbsbasS'generation'
p2019
I10
sS'logbook'
p2020
g2
(cdeap.tools.support
Logbook
p2021
g23
(lp2022
(dp2023
S'std'
p2024
g274
(g278
S'vK\x9a\x89\xabBu@'
p2025
tp2026
Rp2027
sS'nevals'
p2028
I10
sS'min'
p2029
g274
(g278
S'\xec\xf3\x18\x07I^\x87@'
p2030
tp2031
Rp2032
sS'max'
p2033
g274
(g278
S'\x9e\x98\x9c\x15\xdf\x96\xa0@'
p2034
tp2035
Rp2036
sS'avg'
p2037
g274
(g278
S"E'\x14\xbb\x1fo\x93@"
p2038
tp2039
Rp2040
sS'gen'
p2041
I1
sa(dp2042
g2024
g274
(g278
S'4\xb1\xf6\xee\xb6\x92x@'
p2043
tp2044
Rp2045
sg2028
I10
sg2029
g274
(g278
S'\xe4\xde<\xee/wl@'
p2046
tp2047
Rp2048
sg2033
g274
(g278
S'\x9e\x98\x9c\x15\xdf\x96\xa0@'
p2049
tp2050
Rp2051
sg2037
g274
(g278
S'\xbc\x18\x14\x857\xfb\x92@'
p2052
tp2053
Rp2054
sg2041
I2
sa(dp2055
g2024
g274
(g278
S'\xba\x08\x8c\xf7\xeb\r\x80@'
p2056
tp2057
Rp2058
sg2028
I10
sg2029
g274
(g278
S'\xe4\xde<\xee/wl@'
p2059
tp2060
Rp2061
sg2033
g274
(g278
S'\x9e\x98\x9c\x15\xdf\x96\xa0@'
p2062
tp2063
Rp2064
sg2037
g274
(g278
S'\xb7M\xacG\x9f\x13\x94@'
p2065
tp2066
Rp2067
sg2041
I3
sa(dp2068
g2024
g274
(g278
S'\x072\xba,\xcaf{@'
p2069
tp2070
Rp2071
sg2028
I10
sg2029
g274
(g278
S'\xe4\xde<\xee/wl@'
p2072
tp2073
Rp2074
sg2033
g274
(g278
S'\x9e\x98\x9c\x15\xdf\x96\xa0@'
p2075
tp2076
Rp2077
sg2037
g274
(g278
S'XW\xb3\xef\xb4R\x91@'
p2078
tp2079
Rp2080
sg2041
I4
sa(dp2081
g2024
g274
(g278
S'\x07?\xf6\xbd\xbe\xf1\x84@'
p2082
tp2083
Rp2084
sg2028
I10
sg2029
g274
(g278
S'\xe4\xde<\xee/wl@'
p2085
tp2086
Rp2087
sg2033
g274
(g278
S'\x9e\x98\x9c\x15\xdf\x96\xa0@'
p2088
tp2089
Rp2090
sg2037
g274
(g278
S'N($zN\x92\x8c@'
p2091
tp2092
Rp2093
sg2041
I5
sa(dp2094
g2024
g274
(g278
S'\xa3q6\xe1c\x1bu@'
p2095
tp2096
Rp2097
sg2028
I10
sg2029
g274
(g278
S'\xe0\\%\x117\x87d@'
p2098
tp2099
Rp2100
sg2033
g274
(g278
S'\xc5\\\xef\xe7\xbd\xbb\x92@'
p2101
tp2102
Rp2103
sg2037
g274
(g278
S'^\xc3p\xf7\x1dh\x84@'
p2104
tp2105
Rp2106
sg2041
I6
sa(dp2107
g2024
g274
(g278
S'\x0f<p\x0ec]\x80@'
p2108
tp2109
Rp2110
sg2028
I10
sg2029
g274
(g278
S'\xe0\\%\x117\x87d@'
p2111
tp2112
Rp2113
sg2033
g274
(g278
S'\xd4\x10\xd0\x9f\xb2\xde\xa0@'
p2114
tp2115
Rp2116
sg2037
g274
(g278
S'\xf3\x7f~\xd4\xa7\x8d\x84@'
p2117
tp2118
Rp2119
sg2041
I7
sa(dp2120
g2024
g274
(g278
S'\x92F}\x90\x14\x9dw@'
p2121
tp2122
Rp2123
sg2028
I10
sg2029
g274
(g278
S'\xc8I\x98$\x19\xd7f@'
p2124
tp2125
Rp2126
sg2033
g274
(g278
S'<?\xf2\x19\xb1{\x96@'
p2127
tp2128
Rp2129
sg2037
g274
(g278
S'\xbaU\xd6\xa63$\x7f@'
p2130
tp2131
Rp2132
sg2041
I8
sa(dp2133
g2024
g274
(g278
S'\xee\x9df}\x1e]\x82@'
p2134
tp2135
Rp2136
sg2028
I10
sg2029
g274
(g278
S'\xc8I\x98$\x19\xd7f@'
p2137
tp2138
Rp2139
sg2033
g274
(g278
S'\x8c\xad)\xe6\x8a*\xa1@'
p2140
tp2141
Rp2142
sg2037
g274
(g278
S'\x93\xa9U\xe5\x0cT\x85@'
p2143
tp2144
Rp2145
sg2041
I9
sa(dp2146
g2024
g274
(g278
S'\x97B\x97\xa6\xb9\x95\x82@'
p2147
tp2148
Rp2149
sg2028
I10
sg2029
g274
(g278
S'c68k\x9c\x9bi@'
p2150
tp2151
Rp2152
sg2033
g274
(g278
S'\x8c\xad)\xe6\x8a*\xa1@'
p2153
tp2154
Rp2155
sg2037
g274
(g278
S'\xfa\xd9l\xd0\xf8=\x87@'
p2156
tp2157
Rp2158
sg2041
I10
satp2159
Rp2160
(dp2161
S'log_header'
p2162
I01
sS'header'
p2163
(lp2164
g2041
ag2028
ag2037
ag2024
ag2029
ag2033
asS'columns_len'
p2165
(lp2166
I3
aI6
aI7
aI7
aI7
aI7
asS'buffindex'
p2167
I10
sS'chapters'
p2168
ccollections
defaultdict
p2169
(g2021
tp2170
Rp2171
sbsS'rndstate'
p2172
(I3
(L299655262L
L790336422L
L758057891L
L384697671L
L61628346L
L1325367381L
L2657966598L
L3449078899L
L4233982707L
L4141297904L
L2962071223L
L1053130263L
L3839356776L
L742016617L
L2665282219L
L1496611876L
L716507096L
L3683926628L
L2174156853L
L473488178L
L391520593L
L585814470L
L3111200129L
L1336668394L
L367894566L
L1075520179L
L878329028L
L2097953010L
L1869020673L
L1501178192L
L2951883280L
L1826941893L
L1904048354L
L1692530179L
L3285592322L
L1304407326L
L3340811562L
L3546840050L
L1967443038L
L731663970L
L3902297179L
L1048157359L
L2464962088L
L3182240306L
L31419408L
L594500727L
L39624173L
L4204819816L
L47441291L
L3417371163L
L3438944171L
L2431092205L
L3434135976L
L1382504842L
L963969186L
L366906425L
L2876510125L
L3079689252L
L1811005893L
L2633649407L
L2193111995L
L603990482L
L1034660120L
L3789082858L
L3454658000L
L1871602132L
L3713117798L
L1930804869L
L1952625955L
L1194558642L
L1822053146L
L1016893319L
L2510013653L
L191828474L
L1364619039L
L2504446169L
L2730742612L
L1702144663L
L2664461730L
L3859884711L
L622989565L
L398918583L
L3294817544L
L2442219622L
L2339852800L
L1051184148L
L150081180L
L1944624534L
L124242512L
L1857380146L
L2965929429L
L1401413601L
L3876478063L
L959654399L
L135798318L
L696157923L
L220437304L
L3587106220L
L230684384L
L1909275500L
L658653482L
L309425203L
L2087383147L
L3564700830L
L2517675206L
L3895715532L
L2377348471L
L392248603L
L1657046508L
L3693401509L
L980702723L
L2555213302L
L1919404866L
L3117604893L
L2251212873L
L1153096314L
L4100932413L
L3812617261L
L1341874040L
L361564605L
L1455313114L
L315982198L
L4027097667L
L3870400320L
L603627546L
L3641652207L
L4286701846L
L2336162037L
L791132722L
L3364331845L
L3208290965L
L976372210L
L202600939L
L2010155647L
L2230051756L
L268188308L
L3728049733L
L3554620958L
L4036977903L
L1618387950L
L3539186512L
L1547639633L
L3716929595L
L989383252L
L316251843L
L904118331L
L919561358L
L2626447454L
L270100874L
L2779017659L
L3058857550L
L4235694421L
L1898950612L
L3396320287L
L162060124L
L2032027000L
L2258469377L
L3716563298L
L568399873L
L1428324566L
L1229280438L
L2463135609L
L618456253L
L3865566142L
L3961459940L
L1992034613L
L943603581L
L2145147025L
L104014707L
L3601719860L
L1165411478L
L3113466120L
L2758661269L
L354226912L
L1933517194L
L937674058L
L753166902L
L3500263752L
L3429674899L
L2785119702L
L1610251961L
L2169110493L
L2304697290L
L540759196L
L761645230L
L343382964L
L1898514561L
L615943342L
L730665385L
L1794045926L
L3082052047L
L1569753337L
L1283309331L
L4038507028L
L22678293L
L562939886L
L4179738220L
L3909525523L
L2588626520L
L2701201826L
L35752227L
L2744445194L
L3787450767L
L2154083287L
L43115612L
L944466076L
L4010144356L
L717764830L
L1970631990L
L3204441481L
L4206424553L
L561297421L
L907348514L
L685867936L
L1752797687L
L2891604699L
L988525207L
L2676805430L
L3622254289L
L3940016943L
L4094823485L
L659028403L
L3811310482L
L2169755650L
L3967088979L
L1384406868L
L2018771264L
L1898627634L
L1490644566L
L2687231294L
L3894759815L
L1195311809L
L1213700581L
L1810020467L
L1951472471L
L188510188L
L1324302796L
L735007585L
L2012596642L
L1682465154L
L352659762L
L2870329204L
L4180397190L
L965772312L
L1248281363L
L542969437L
L1824454846L
L2617624366L
L2472947288L
L3484565431L
L4192206661L
L4090561997L
L183272418L
L2484528667L
L2613156212L
L2805743438L
L3070044488L
L1673999232L
L3923540233L
L778515598L
L211303683L
L769330651L
L3153290564L
L365042252L
L216196526L
L2920038068L
L1000368503L
L447018081L
L2378957737L
L879673759L
L2797772633L
L3610648384L
L3964390677L
L1442723161L
L2225853315L
L3270016965L
L2240743686L
L621979534L
L1115075496L
L3204664373L
L3849570640L
L3751260233L
L3142843966L
L3349723066L
L575258671L
L1690248671L
L298131332L
L3260750103L
L722358372L
L2767387646L
L3000610186L
L3521396152L
L1847361829L
L1829021663L
L2647340786L
L1879849591L
L1183780693L
L791850363L
L2507852088L
L3473510928L
L2478377454L
L1331949913L
L3605379064L
L4113932464L
L1369857926L
L1431450731L
L1464745682L
L1076441972L
L648294161L
L2224870934L
L3332191918L
L1260392429L
L2328517334L
L2124406540L
L1049495413L
L1691243078L
L1519037163L
L835400053L
L3236551012L
L2980552988L
L1404450311L
L3575621659L
L4060345441L
L2481429454L
L2368540450L
L1220844334L
L599968808L
L1629461666L
L3454870198L
L2618287293L
L299577896L
L4247507108L
L2640817809L
L1098471213L
L710892755L
L2822371210L
L3795798039L
L950939728L
L2064678583L
L203969300L
L3714561993L
L1628260473L
L2266140574L
L4276802129L
L268329758L
L2892340953L
L2652260478L
L2682869267L
L1172448386L
L598870987L
L2261089514L
L489282150L
L3495202703L
L2025672829L
L1892175392L
L1193726617L
L4231525365L
L3923207641L
L1391758054L
L3283418339L
L2089257430L
L1470830098L
L2808493124L
L1082833545L
L2389868180L
L2022017804L
L2049359804L
L383443817L
L2690134485L
L918577318L
L3273804588L
L373500228L
L2617465217L
L1788948655L
L3188290074L
L2359003793L
L2378995445L
L1280619543L
L1550199649L
L3202117691L
L3692898611L
L1811130449L
L815316973L
L2611495763L
L3155819579L
L2266843861L
L1122262362L
L2276473545L
L2459426062L
L61491689L
L4092742269L
L2696319556L
L692781557L
L3443691198L
L1878792460L
L168124781L
L1643219022L
L3779306229L
L4102517573L
L2204605782L
L2892080326L
L9820406L
L1540146999L
L3263398283L
L4192225835L
L3933357742L
L2645709417L
L1477372956L
L3976520405L
L1915008913L
L1147463194L
L821345691L
L3188026096L
L119131157L
L2884755367L
L4009536166L
L2497516955L
L1355804471L
L2522389404L
L3289951960L
L2727753589L
L2144699834L
L2794532518L
L2885499669L
L3065274163L
L368578983L
L2218546705L
L2621922036L
L3311321209L
L1987700023L
L1943906334L
L1590546566L
L605581024L
L2284047192L
L3607197094L
L726699662L
L2577408400L
L2515758549L
L1430193266L
L599858032L
L2998905166L
L3211321923L
L4135374477L
L4183704703L
L1499157067L
L1185471337L
L860365887L
L266173854L
L854847636L
L3768644180L
L3945684591L
L385442729L
L1877890964L
L2992583727L
L1207903611L
L3120857L
L3783254227L
L3586325686L
L4028968588L
L1202414217L
L3745920946L
L4061161143L
L304925153L
L3755036250L
L4293494957L
L2595633001L
L1399616146L
L1947770603L
L2458473745L
L1350382732L
L3720195073L
L3146296826L
L1075765211L
L4279854315L
L3867953974L
L3951299522L
L1537069385L
L263152319L
L3691769980L
L558330153L
L1824714327L
L241389068L
L2070343655L
L812168047L
L3190302973L
L1360601357L
L1762636362L
L3816765425L
L185162153L
L394550351L
L19281452L
L1830367360L
L2958870368L
L2818754836L
L2787274275L
L2559029559L
L686501491L
L2851668351L
L1158096141L
L1757540772L
L1878888515L
L431167042L
L1400214681L
L725068591L
L3007575396L
L3493583945L
L3468321648L
L3746925278L
L844966622L
L617206569L
L2773525014L
L305062196L
L3876738085L
L221074521L
L3375050548L
L3256916729L
L668341657L
L2394400987L
L2123135468L
L4096161853L
L2884235518L
L2364258376L
L2776926683L
L1524996418L
L973336968L
L2302723807L
L2685220044L
L1070504716L
L3172062865L
L2030696436L
L2090203472L
L1405782014L
L2542028095L
L3740535398L
L3567298986L
L2748403752L
L2775089383L
L4267998458L
L1309425505L
L2172057728L
L2908938519L
L1252414478L
L4260458706L
L3908488731L
L2610681391L
L2778961239L
L2325112596L
L3605790476L
L485123406L
L3511794657L
L3480089593L
L882080956L
L2437555243L
L301835322L
L1776559349L
L1611589783L
L1866540632L
L1574500934L
L4011371446L
L357165367L
L2787816437L
L790820708L
L267027268L
L703007147L
L313244959L
L1031501183L
L801823456L
L2128090595L
L2571524327L
L2810605586L
L3818323495L
L1214198674L
L2724498861L
L1488776557L
L2367921861L
L1156323022L
L626919242L
L3391392822L
L1608359960L
L2857730555L
L580094760L
L44944048L
L4082016715L
L454135171L
L418743061L
L4016297861L
L2174908114L
L207831135L
L2897190908L
L3731867971L
L2162206715L
L2695893123L
L3588840862L
L390919741L
L2778328019L
L332647639L
L2321248923L
L1159299085L
L763667140L
L1541427182L
L3240656310L
L4110162891L
L3903081344L
L2963578061L
L2960440883L
L3215158617L
L2777293929L
L2870968371L
L4012109450L
L654267551L
L405684807L
L3855720742L
L1681132537L
L2650990748L
L1913698639L
L2328122702L
L3899960271L
L2885647591L
L739345060L
L2314014001L
L1387262484L
L4243777229L
L1577685563L
L689944673L
L4L
tp2173
Ntp2174
sS'halloffame'
p2175
g2
(cdeap.tools.support
HallOfFame
p2176
g4
Ntp2177
Rp2178
(dp2179
S'keys'
p2180
(lp2181
g2
(g30
g4
Ntp2182
Rp2183
(dp2184
g34
g99
sg36
g1492
sbag2
(g30
g4
Ntp2185
Rp2186
(dp2187
g34
g99
sg36
g252
sbag2
(g30
g4
Ntp2188
Rp2189
(dp2190
g34
g99
sg36
g1868
sbag2
(g30
g4
Ntp2191
Rp2192
(dp2193
g34
g99
sg36
g1691
sbag2
(g30
g4
Ntp2194
Rp2195
(dp2196
g34
g108
sg36
g1227
sbag2
(g30
g4
Ntp2197
Rp2198
(dp2199
g34
g99
sg36
g1293
sbag2
(g30
g4
Ntp2200
Rp2201
(dp2202
g34
g99
sg36
g1072
sbag2
(g30
g4
Ntp2203
Rp2204
(dp2205
g34
g108
sg36
g1503
sbag2
(g30
g4
Ntp2206
Rp2207
(dp2208
g34
g99
sg36
g1238
sbag2
(g30
g4
Ntp2209
Rp2210
(dp2211
g34
g99
sg36
g1061
sbasS'items'
p2212
(lp2213
g2
(g22
g23
(lp2214
F1.8124174039880248
aF6.508100376074385
aF3.6108940653279706
aF0.00721045728161866
aF0.047697455649852186
aF0.7212780301768604
atp2215
Rp2216
(dp2217
g28
I89
sg273
g274
(g278
S'\x00\xc0\x8eFI\xd7\x13?'
p2218
tp2219
Rp2220
sg29
g2210
sbag2
(g22
g23
(lp2221
F1.792642390403585
aF6.487002129719235
aF4.835711055407517
aF0.008240154262012928
aF0.04710788215940695
aF0.7513801657871481
atp2222
Rp2223
(dp2224
g28
I105
sg273
g274
(g278
S'\x00\xc0\x1f8A\x1e\x11?'
p2225
tp2226
Rp2227
sg29
g2207
sbag2
(g22
g23
(lp2228
F0.6171300841188213
aF5.907041747900618
aF3.9455928398240485
aF0.0021931549683461052
aF0.044995680262631337
aF0.8588629976825131
atp2229
Rp2230
(dp2231
g28
I111
sg273
g274
(g278
S'\x80\xd6\xbf\xdb\xb7\x92\xb5?'
p2232
tp2233
Rp2234
sg29
g2204
sbag2
(g22
g23
(lp2235
F1.9623543064050484
aF8.897038997643385
aF4.0627753392063894
aF0.007111946577775828
aF0.04570210245848279
aF0.7772520463637523
atp2236
Rp2237
(dp2238
g28
I85
sg273
g274
(g278
S'\x00\x00\x04\xc3\x0eH\xe2>'
p2239
tp2240
Rp2241
sg29
g2201
sbag2
(g22
g23
(lp2242
F2.491318638372236
aF6.508100376074385
aF4.777438086112238
aF0.007537685279298151
aF0.047697455649852186
aF0.3636757005540976
atp2243
Rp2244
(dp2245
g28
I105
sg273
g274
(g278
S'\x00\xc0\x1f8A\x1e\x11?'
p2246
tp2247
Rp2248
sg29
g2198
sbag2
(g22
g23
(lp2249
F0.9303527346566011
aF5.9281399942557575
aF3.535532170399731
aF0.0021412565851621247
aF0.04951533234309236
aF0.5441270182133852
atp2250
Rp2251
(dp2252
g28
I108
sg273
g274
(g278
S'x\xa6\xc5|\x8f\x17\xc4?'
p2253
tp2254
Rp2255
sg29
g2195
sbag2
(g22
g23
(lp2256
F0.9535201226583196
aF6.272489022779725
aF5.218593904819679
aF0.008197897778381133
aF0.04770246633663508
aF0.7459966463451975
atp2257
Rp2258
(dp2259
g28
I139
sg273
g274
(g278
S'\x800\x80\xa2Q0\x92?'
p2260
tp2261
Rp2262
sg29
g2192
sbag2
(g22
g23
(lp2263
F1.6983038578663046
aF6.438951124486673
aF5.544016712414384
aF0.0062349579605675675
aF0.03904559313903053
aF0.3650206734335071
atp2264
Rp2265
(dp2266
g28
I168
sg273
g274
(g278
S'p\xc4\xfc\xe0_\x9e\xba?'
p2267
tp2268
Rp2269
sg29
g2189
sbag2
(g22
g23
(lp2270
F1.5605436141357414
aF4.687277761993222
aF7.3262503127993766
aF0.007111946577775828
aF0.0468220356959143
aF0.38952038461623756
atp2271
Rp2272
(dp2273
g28
I8
sg29
g2186
sbag2
(g22
g23
(lp2274
F0.9096768898786073
aF6.151844424284933
aF6.487872895754128
aF0.007122282995684532
aF0.04789873055452215
aF0.7651345325015102
atp2275
Rp2276
(dp2277
g28
I128
sg273
g274
(g278
S'\x00\x00\xdf,zF\x0f?'
p2278
tp2279
Rp2280
sg29
g2183
sbasS'maxsize'
p2281
I10
sS'similar'
p2282
coperator
eq
p2283
sbsS'population'
p2284
(lp2285
g1991
ag1971
ag1981
ag2001
ag2
(g22
g23
(lp2286
F7.023782734375529
aF4.478526697871512
aF6.74694845747451
aF0.00854427766194149
aF0.03699659340173607
aF0.14177181314759102
atp2287
Rp2288
(dp2289
g28
I178
sg273
g274
(g278
S'@\x08\xdb\xe44\xa2\x94?'
p2290
tp2291
Rp2292
sg29
g2
(g30
g4
Ntp2293
Rp2294
(dp2295
g34
g63
sg36
g1746
sbsbag2
(g22
g23
(lp2296
F2.474727064976604
aF5.195403226599947
aF3.9454485288440617
aF0.005411785048656202
aF0.04757230201144282
aF0.06847896716860652
atp2297
Rp2298
(dp2299
g28
I186
sg273
g274
(g278
S'\xc0B\x83\xa5\xa5\xec\x9b?'
p2300
tp2301
Rp2302
sg29
g2
(g30
g4
Ntp2303
Rp2304
(dp2305
g34
g63
sg36
g1912
sbsbag2011
ag2
(g22
g23
(lp2306
F5.872437984328246
aF4.478526697871512
aF6.226675909882697
aF0.008399460952105501
aF0.048002832875409594
aF0.038239545754622364
atp2307
Rp2308
(dp2309
g28
I188
sg273
g274
(g278
S' 0\x8e\xa0\xc8`\xa8?'
p2310
tp2311
Rp2312
sg29
g2
(g30
g4
Ntp2313
Rp2314
(dp2315
g34
g63
sg36
g1934
sbsbag1961
ag2
(g22
g23
(lp2316
F1.6983038578663046
aF6.438951124486673
aF5.544016712414384
aF0.0062349579605675675
aF0.04710788215940695
aF0.46576038060603503
atp2317
Rp2318
(dp2319
g28
I172
sg273
g274
(g278
S'`:\x1d!Vi\xd2?'
p2320
tp2321
Rp2322
sg29
g2
(g30
g4
Ntp2323
Rp2324
(dp2325
g34
g99
sg36
g1724
sbsbag2
(g22
g23
(lp2326
F6.963482758016677
aF5.741538771342738
aF8.843238705249215
aF0.005026521880817417
aF0.0305472328885617
aF0.8135839158115244
atp2327
Rp2328
(dp2329
g28
I173
sg273
g274
(g278
S'\x88*?\xd8]C\xd3?'
p2330
tp2331
Rp2332
sg29
g2
(g30
g4
Ntp2333
Rp2334
(dp2335
g34
g99
sg36
g1647
sbsbag2
(g22
g23
(lp2336
F0.9744587159620701
aF3.97237889375891
aF9.99535952522065
aF0.0054207172932872
aF0.04669012830601753
aF0.4002238411799836
atp2337
Rp2338
(dp2339
g28
I184
sg273
g274
(g278
S'h\x17\x07gbN\xd6?'
p2340
tp2341
Rp2342
sg29
g2
(g30
g4
Ntp2343
Rp2344
(dp2345
g34
g99
sg36
g1890
sbsbag2
(g22
g23
(lp2346
F1.6983038578663046
aF6.438951124486673
aF5.544016712414384
aF0.0062349579605675675
aF0.03904559313903053
aF0.3650206734335071
atp2347
Rp2348
(dp2349
g28
I182
sg273
g274
(g278
S'\x14\xd9U\x80/\xb2\xde?'
p2350
tp2351
Rp2352
sg29
g2
(g30
g4
Ntp2353
Rp2354
(dp2355
g34
g99
sg36
g1868
sbsbag2
(g22
g23
(lp2356
F2.2088217586197643
aF7.624888651365346
aF4.777438086112238
aF0.007537685279298151
aF0.047697455649852186
aF0.4499960193525941
atp2357
Rp2358
(dp2359
g28
I181
sg273
g274
(g278
S'\x10\xcf\xc2\xf1d\xf2\xe1?'
p2360
tp2361
Rp2362
sg29
g2
(g30
g4
Ntp2363
Rp2364
(dp2365
g34
g99
sg36
g1857
sbsbag2
(g22
g23
(lp2366
F6.963482758016677
aF5.741538771342738
aF8.736825308370964
aF0.00677034404336758
aF0.030133668367346673
aF0.7926188073693688
atp2367
Rp2368
(dp2369
g28
I183
sg273
g274
(g278
S'\xd2\xfe\xc1{\xd7~\xe3?'
p2370
tp2371
Rp2372
sg29
g2
(g30
g4
Ntp2373
Rp2374
(dp2375
g34
g99
sg36
g1879
sbsbag2
(g22
g23
(lp2376
F2.491318638372236
aF6.508100376074385
aF4.777438086112238
aF0.007537685279298151
aF0.047697455649852186
aF0.3636757005540976
atp2377
Rp2378
(dp2379
g28
I179
sg273
g274
(g278
S'\xb0\x03`=\xb6:\xf1?'
p2380
tp2381
Rp2382
sg29
g2
(g30
g4
Ntp2383
Rp2384
(dp2385
g34
g99
sg36
g1293
sbsbag2378
ag2
(g22
g23
(lp2386
F7.128539559362104
aF6.391683945051648
aF0.7773618433688946
aF0.005338243266390394
aF0.04757230201144282
aF0.06993755574254185
atp2387
Rp2388
(dp2389
g28
I180
sg273
g274
(g278
S'\x14\x9e\xbf$\xf3%\x00@'
p2390
tp2391
Rp2392
sg29
g2
(g30
g4
Ntp2393
Rp2394
(dp2395
g34
g63
sg36
g1658
sbsbag2388
ag2388
as.