(dp0
S'history'
p1
ccopy_reg
_reconstructor
p2
(cdeap.tools.support
History
p3
c__builtin__
object
p4
Ntp5
Rp6
(dp7
S'genealogy_tree'
p8
(dp9
I1
(tsI2
(tsI3
(tsI4
(tsI5
(tsI6
(tsI7
(tsI8
(tsI9
(tsI10
(tsI11
(I1
I2
I3
I4
I5
I6
I7
I8
I9
I10
I1
I2
I3
I4
I5
I6
I7
I8
I9
I10
tp10
sI12
g10
sI13
g10
sI14
g10
sI15
g10
sI16
g10
sI17
g10
sI18
g10
sI19
g10
sI20
g10
sI21
g10
sI22
g10
sI23
g10
sI24
g10
sI25
g10
sI26
g10
sI27
g10
sI28
g10
sI29
g10
sI30
g10
sI31
(I20
I22
I29
I27
I19
I13
I28
I20
I22
I29
I20
I22
I29
I27
I19
I13
I28
I20
I22
I29
tp11
sI32
g11
sI33
g11
sI34
g11
sI35
g11
sI36
g11
sI37
g11
sI38
g11
sI39
g11
sI40
g11
sI41
g11
sI42
g11
sI43
g11
sI44
g11
sI45
g11
sI46
g11
sI47
g11
sI48
g11
sI49
g11
sI50
g11
sI51
(I44
I34
I44
I37
I43
I49
I47
I44
I49
I49
I44
I34
I44
I37
I43
I49
I47
I44
I49
I49
tp12
sI52
g12
sI53
g12
sI54
g12
sI55
g12
sI56
g12
sI57
g12
sI58
g12
sI59
g12
sI60
g12
sI61
g12
sI62
g12
sI63
g12
sI64
g12
sI65
g12
sI66
g12
sI67
g12
sI68
g12
sI69
g12
sI70
g12
sI71
(I66
I63
I62
I65
I62
I55
I55
I64
I62
I55
I66
I63
I62
I65
I62
I55
I55
I64
I62
I55
tp13
sI72
g13
sI73
g13
sI74
g13
sI75
g13
sI76
g13
sI77
g13
sI78
g13
sI79
g13
sI80
g13
sI81
g13
sI82
g13
sI83
g13
sI84
g13
sI85
g13
sI86
g13
sI87
g13
sI88
g13
sI89
g13
sI90
g13
sI91
(I78
I72
I85
I78
I85
I87
I84
I83
I90
I84
I78
I72
I85
I78
I85
I87
I84
I83
I90
I84
tp14
sI92
g14
sI93
g14
sI94
g14
sI95
g14
sI96
g14
sI97
g14
sI98
g14
sI99
g14
sI100
g14
sI101
g14
sI102
g14
sI103
g14
sI104
g14
sI105
g14
sI106
g14
sI107
g14
sI108
g14
sI109
g14
sI110
g14
sI111
(I105
I92
I103
I96
I109
I100
I92
I109
I103
I96
I105
I92
I103
I96
I109
I100
I92
I109
I103
I96
tp15
sI112
g15
sI113
g15
sI114
g15
sI115
g15
sI116
g15
sI117
g15
sI118
g15
sI119
g15
sI120
g15
sI121
g15
sI122
g15
sI123
g15
sI124
g15
sI125
g15
sI126
g15
sI127
g15
sI128
g15
sI129
g15
sI130
g15
sI131
(I116
I130
I121
I111
I116
I111
I129
I111
I125
I127
I116
I130
I121
I111
I116
I111
I129
I111
I125
I127
tp16
sI132
g16
sI133
g16
sI134
g16
sI135
g16
sI136
g16
sI137
g16
sI138
g16
sI139
g16
sI140
g16
sI141
g16
sI142
g16
sI143
g16
sI144
g16
sI145
g16
sI146
g16
sI147
g16
sI148
g16
sI149
g16
sI150
g16
ssS'genealogy_index'
p17
I150
sS'genealogy_history'
p18
(dp19
I1
g2
(cbluepyopt.deapext.optimisations
WSListIndividual
p20
c__builtin__
list
p21
(lp22
F1.6898967434790517
aF8.535363874597433
aF7.7322363421754945
aF0.002550764750491643
aF0.024771804811088337
aF0.4494911198396317
atp23
Rp24
(dp25
S'history_index'
p26
I1
sS'fitness'
p27
g2
(cbluepyopt.deapext.optimisations
WeightedSumFitness
p28
g4
Ntp29
Rp30
(dp31
S'weights'
p32
(lp33
F-1.0
aF-1.0
aF-1.0
aF-1.0
aF-1.0
aF-1.0
aF-1.0
aF-1.0
aF-1.0
aF-1.0
aF-1.0
aF-1.0
aF-1.0
asS'wvalues'
p34
(F-7.826086956521738
F-3.358089099177674
F-7.303030303030783
F-5.082508250826274
F-9.66896969152459
F-39.68630551646293
F-13.68421052631579
F-2.4407953593097456
F-0.8769804210542655
F-77.8635125066948
F-3.47185238509089
F-52.20922264559941
F-8.283499446289651
tp35
sbsbsI2
g2
(g20
g21
(lp36
F6.655292538138524
aF7.9717441709009265
aF1.301052033032655
aF0.0002835719304724109
aF0.0417882716194831
aF0.4327671246283466
atp37
Rp38
(dp39
g26
I2
sg27
g2
(g28
g4
Ntp40
Rp41
(dp42
g32
(lp43
F-1.0
aF-1.0
aF-1.0
aF-1.0
aF-1.0
aF-1.0
aF-1.0
aF-1.0
aF-1.0
aF-1.0
aF-1.0
aF-1.0
aF-1.0
asg34
(F-6.08695652173913
F-3.3581654131767156
F-6.122955909749502
F-11.485148514854178
F-12.93289165932379
F-6.113528853866207
F-20.140350877192983
F-10.925890386773704
F-0.914590229709849
F-13.903135504793411
F-14.058409142942779
F-35.88125675545933
F-1.3953488372088787
tp44
sbsbsI3
g2
(g20
g21
(lp45
F7.717888791596243
aF0.4202181121706627
aF4.675717062926094
aF0.007215428169404592
aF0.011438188187300505
aF0.9452707010268527
atp46
Rp47
(dp48
g26
I3
sg27
g2
(g28
g4
Ntp49
Rp50
(dp51
g32
(lp52
F-1.0
aF-1.0
aF-1.0
aF-1.0
aF-1.0
aF-1.0
aF-1.0
aF-1.0
aF-1.0
aF-1.0
aF-1.0
aF-1.0
aF-1.0
asg34
(F-19.999999999999996
F-3.356110179847321
F-250.0
F-250.0
F-250.0
F-250.0
F-250.0
F-250.0
F-0.6078043552012449
F-52.450251730604776
F-4.988241049470402
F-250.0
F-250.0
tp53
sbsbsI4
g2
(g20
g21
(lp54
F9.053703593070242
aF0.693663837122114
aF0.6442802655372237
aF0.005414170586687687
aF0.04695746422400925
aF0.3812042995677887
atp55
Rp56
(dp57
g26
I4
sg27
g2
(g28
g4
Ntp58
Rp59
(dp60
g32
(lp61
F-1.0
aF-1.0
aF-1.0
aF-1.0
aF-1.0
aF-1.0
aF-1.0
aF-1.0
aF-1.0
aF-1.0
aF-1.0
aF-1.0
aF-1.0
asg34
(F-13.043478260869565
F-3.358445699265437
F-12.888511721650715
F-11.485148514854178
F-13.066092100626948
F-0.7816429515287976
F-336.5614035087719
F-5.058293599428587
F-0.9335881816404368
F-12.688835113550574
F-14.517785144139264
F-45.22687262676267
F-2.7325581395312666
tp62
sbsbsI5
g2
(g20
g21
(lp63
F2.479354212453888
aF4.452319125594086
aF0.6787915607187323
aF0.0022169944935637232
aF0.021894435893769236
aF0.4958122918006265
atp64
Rp65
(dp66
g26
I5
sg27
g2
(g28
g4
Ntp67
Rp68
(dp69
g32
(lp70
F-1.0
aF-1.0
aF-1.0
aF-1.0
aF-1.0
aF-1.0
aF-1.0
aF-1.0
aF-1.0
aF-1.0
aF-1.0
aF-1.0
aF-1.0
asg34
(F-19.130434782608692
F-3.3579230953905794
F-117.37704918045287
F-15.973597359739719
F-250.0
F-250.0
F-250.0
F-250.0
F-0.8536075653402426
F-3.5772241753268434
F-17.797147236565102
F-15.322142306410907
F-5.73643410852336
tp71
sbsbsI6
g2
(g20
g21
(lp72
F2.6376107224726972
aF2.616318798793449
aF2.5002979584418106
aF0.004596088697030763
aF0.01448915175136282
aF0.02148980311693835
atp73
Rp74
(dp75
g26
I6
sg27
g2
(g28
g4
Ntp76
Rp77
(dp78
g32
(lp79
F-1.0
aF-1.0
aF-1.0
aF-1.0
aF-1.0
aF-1.0
aF-1.0
aF-1.0
aF-1.0
aF-1.0
aF-1.0
aF-1.0
aF-1.0
asg34
(F-19.130434782608692
F-3.3601671809931086
F-58.31775700937784
F-12.937293729375972
F-250.0
F-250.0
F-250.0
F-250.0
F-1.128148502465115
F-15.855663907045571
F-14.400065035845058
F-38.683405332567744
F-19.224806201560757
tp80
sbsbsI7
g2
(g20
g21
(lp81
F8.4407485663607
aF5.741961497463361
aF6.566025884151478
aF0.0018591440683205878
aF0.04962717135446204
aF0.859946542800637
atp82
Rp83
(dp84
g26
I7
sg27
g2
(g28
g4
Ntp85
Rp86
(dp87
g32
(lp88
F-1.0
aF-1.0
aF-1.0
aF-1.0
aF-1.0
aF-1.0
aF-1.0
aF-1.0
aF-1.0
aF-1.0
aF-1.0
aF-1.0
aF-1.0
asg34
(F-10.43478260869565
F-3.3560574894602277
F-10.403914220279018
F-1.1221122112213853
F-8.70253953796765
F-23.48256330360998
F-29.05263157894737
F-3.8049609441835215
F-0.6879036572695738
F-80.27820414722471
F-1.9362445918946567
F-68.85233114055613
F-8.978153629316822
tp89
sbsbsI8
g2
(g20
g21
(lp90
F1.5605436141357414
aF3.593873779457239
aF7.3262503127993766
aF0.007111946577775828
aF0.0468220356959143
aF0.4221070577507152
atp91
Rp92
(dp93
g26
I8
sg27
g2
(g28
g4
Ntp94
Rp95
(dp96
g32
(lp97
F-1.0
aF-1.0
aF-1.0
aF-1.0
aF-1.0
aF-1.0
aF-1.0
aF-1.0
aF-1.0
aF-1.0
aF-1.0
aF-1.0
aF-1.0
asg34
(F-3.478260869565217
F-3.358018123614597
F-3.8764556962021897
F-11.287128712873933
F-16.300879520249676
F-4.746208092177779
F-1.7543859649122806
F-16.443981720308113
F-0.9011269740627927
F-71.70589209895829
F-4.254866481869904
F-6.413070665177387
F-7.988576091391506
tp98
sbsbsI9
g2
(g20
g21
(lp99
F8.368342655433539
aF6.834933437575082
aF3.312337704956009
aF0.0058758473033749805
aF0.0441239617936928
aF0.8461974338085709
atp100
Rp101
(dp102
g26
I9
sg27
g2
(g28
g4
Ntp103
Rp104
(dp105
g32
(lp106
F-1.0
aF-1.0
aF-1.0
aF-1.0
aF-1.0
aF-1.0
aF-1.0
aF-1.0
aF-1.0
aF-1.0
aF-1.0
aF-1.0
aF-1.0
asg34
(F-10.43478260869565
F-3.3560698504659165
F-10.43180402740295
F-3.4983498349843187
F-11.58313211685246
F-7.668282844329561
F-30.24561403508772
F-4.569270425730177
F-0.6794723191882802
F-40.67758895400786
F-7.162532056377522
F-71.54086207887347
F-12.219873150105123
tp107
sbsbsI10
g2
(g20
g21
(lp108
F5.250724677564164
aF6.054421676632496
aF0.7314479694528793
aF0.0024274754614333222
aF0.03987023263729039
aF0.41431405786937436
atp109
Rp110
(dp111
g26
I10
sg27
g2
(g28
g4
Ntp112
Rp113
(dp114
g32
(lp115
F-1.0
aF-1.0
aF-1.0
aF-1.0
aF-1.0
aF-1.0
aF-1.0
aF-1.0
aF-1.0
aF-1.0
aF-1.0
aF-1.0
aF-1.0
asg34
(F-4.3478260869565215
F-3.358292846771272
F-4.133796150205301
F-13.993399339937275
F-8.967005534320267
F-4.818041856246096
F-13.263157894736842
F-8.718249636535276
F-0.916470663427523
F-4.124476322046375
F-16.68923418346937
F-21.79479275763927
F-1.9982773471166508
tp116
sbsbsI11
g2
(g20
g21
(lp117
F1.6898967434790517
aF8.535363874597433
aF7.7322363421754945
aF0.002550764750491643
aF0.024771804811088337
aF0.4494911198396317
atp118
Rp119
(dp120
g26
I11
sg27
g2
(g28
g4
Ntp121
Rp122
(dp123
g32
g33
sg34
g35
sbsbsI12
g2
(g20
g21
(lp124
F6.655292538138524
aF7.9717441709009265
aF1.301052033032655
aF0.0002835719304724109
aF0.0417882716194831
aF0.4327671246283466
atp125
Rp126
(dp127
g26
I12
sg27
g2
(g28
g4
Ntp128
Rp129
(dp130
g32
g43
sg34
g44
sbsbsI13
g2
(g20
g21
(lp131
F7.717888791596243
aF0.4202181121706627
aF4.675717062926094
aF0.007215428169404592
aF0.011438188187300505
aF0.9452707010268527
atp132
Rp133
(dp134
g26
I13
sg27
g2
(g28
g4
Ntp135
Rp136
(dp137
g32
g52
sg34
g53
sbsbsI14
g2
(g20
g21
(lp138
F9.053703593070242
aF0.693663837122114
aF0.6442802655372237
aF0.005414170586687687
aF0.04695746422400925
aF0.3812042995677887
atp139
Rp140
(dp141
g26
I14
sg27
g2
(g28
g4
Ntp142
Rp143
(dp144
g32
g61
sg34
g62
sbsbsI15
g2
(g20
g21
(lp145
F2.479354212453888
aF4.452319125594086
aF0.6787915607187323
aF0.0022169944935637232
aF0.021894435893769236
aF0.4958122918006265
atp146
Rp147
(dp148
g26
I15
sg27
g2
(g28
g4
Ntp149
Rp150
(dp151
g32
g70
sg34
g71
sbsbsI16
g2
(g20
g21
(lp152
F2.6376107224726972
aF2.616318798793449
aF2.5002979584418106
aF0.004596088697030763
aF0.01448915175136282
aF0.02148980311693835
atp153
Rp154
(dp155
g26
I16
sg27
g2
(g28
g4
Ntp156
Rp157
(dp158
g32
g79
sg34
g80
sbsbsI17
g2
(g20
g21
(lp159
F8.4407485663607
aF5.741961497463361
aF6.566025884151478
aF0.0018591440683205878
aF0.04962717135446204
aF0.859946542800637
atp160
Rp161
(dp162
g26
I17
sg27
g2
(g28
g4
Ntp163
Rp164
(dp165
g32
g88
sg34
g89
sbsbsI18
g2
(g20
g21
(lp166
F1.5605436141357414
aF3.593873779457239
aF7.3262503127993766
aF0.007111946577775828
aF0.0468220356959143
aF0.4221070577507152
atp167
Rp168
(dp169
g26
I18
sg27
g2
(g28
g4
Ntp170
Rp171
(dp172
g32
g97
sg34
g98
sbsbsI19
g2
(g20
g21
(lp173
F8.368342655433539
aF6.834933437575082
aF3.312337704956009
aF0.0058758473033749805
aF0.0441239617936928
aF0.8461974338085709
atp174
Rp175
(dp176
g26
I19
sg27
g2
(g28
g4
Ntp177
Rp178
(dp179
g32
g106
sg34
g107
sbsbsI20
g2
(g20
g21
(lp180
F5.250724677564164
aF6.054421676632496
aF0.7314479694528793
aF0.0024274754614333222
aF0.03987023263729039
aF0.41431405786937436
atp181
Rp182
(dp183
g26
I20
sg27
g2
(g28
g4
Ntp184
Rp185
(dp186
g32
g115
sg34
g116
sbsbsI21
g2
(g20
g21
(lp187
F1.2113530771076202
aF8.667674294764197
aF7.7322363421754945
aF0.00030136939163206066
aF0.024771804811088337
aF0.4494911198396317
atp188
Rp189
(dp190
g26
I21
sg27
g2
(g28
g4
Ntp191
Rp192
(dp193
g32
g33
sg34
(F-6.08695652173913
F-3.357943095556396
F-6.044962531224016
F-5.874587458747252
F-7.731834781205919
F-42.07847219639395
F-14.035087719298245
F-2.1987462326643596
F-0.8825450888663727
F-76.37364806887125
F-3.6852087113608354
F-40.36002169623898
F-8.856589147286154
tp194
sbsbsI22
g2
(g20
g21
(lp195
F6.655292538138524
aF7.9717441709009265
aF0.4501881042402506
aF0.0031673823825556216
aF0.03534010144749427
aF0.4327671246283466
atp196
Rp197
(dp198
g26
I22
sg27
g2
(g28
g4
Ntp199
Rp200
(dp201
g32
g43
sg34
(F-2.6086956521739126
F-3.3582360158994593
F-2.723430574167509
F-13.33333333333646
F-11.134565130419428
F-1.3736022773747607
F-9.263157894736842
F-10.54979924406172
F-0.8987857387914253
F-5.4374596515023415
F-16.339373122326254
F-49.95341235231483
F-1.937984496125266
tp202
sbsbsI23
g2
(g20
g21
(lp203
F7.955812274430505
aF0.4202181121706627
aF4.162651970372639
aF0.007215428169404592
aF0.011221296925742794
aF0.7029878043989166
atp204
Rp205
(dp206
g26
I23
sg27
g2
(g28
g4
Ntp207
Rp208
(dp209
g32
g52
sg34
(F-19.999999999999996
F-3.356709517903826
F-250.0
F-250.0
F-250.0
F-250.0
F-250.0
F-250.0
F-0.7219145025006153
F-48.42542105836282
F-6.003024392837366
F-250.0
F-250.0
tp210
sbsbsI24
g2
(g20
g21
(lp211
F7.0526400668387605
aF1.9989749978238982
aF0.6442802655372237
aF0.005627364775620524
aF0.045167411721541095
aF0.1285849460744397
atp212
Rp213
(dp214
g26
I24
sg27
g2
(g28
g4
Ntp215
Rp216
(dp217
g32
g61
sg34
(F-6.08695652173913
F-3.3596989490575724
F-6.018769551616326
F-13.531353135316705
F-11.020106985590887
F-3.4488003803924174
F-24.63157894736842
F-28.46043881419406
F-1.092796350812942
F-7.136309791063746
F-16.42980021197882
F-21.910096033608276
F-9.195736434108138
tp218
sbsbsI25
g2
(g20
g21
(lp219
F2.479354212453888
aF4.900774189753166
aF0.6787653109162933
aF0.0022169944935637232
aF0.02669502870025975
aF0.4958122918006265
atp220
Rp221
(dp222
g26
I25
sg27
g2
(g28
g4
Ntp223
Rp224
(dp225
g32
g70
sg34
(F-17.391304347826086
F-3.35789335381353
F-16.398796733993144
F-16.105610561059883
F-250.0
F-1.1618164403729792
F-434.3859649122806
F-250.0
F-0.8577555326512651
F-3.486943985378051
F-17.805960023540603
F-11.038696993572705
F-6.925064599479747
tp226
sbsbsI26
g2
(g20
g21
(lp227
F2.940299655623448
aF2.7588240998593214
aF2.7640098748139708
aF0.004138954115171498
aF0.02169187720542049
aF0.02148980311693835
atp228
Rp229
(dp230
g26
I26
sg27
g2
(g28
g4
Ntp231
Rp232
(dp233
g32
g79
sg34
(F-19.130434782608692
F-3.360232374600716
F-60.57692307695759
F-13.135313531356216
F-250.0
F-250.0
F-250.0
F-250.0
F-1.1399339968576698
F-21.48697960347999
F-13.454721424854851
F-22.523577618883177
F-22.790697674429918
tp234
sbsbsI27
g2
(g20
g21
(lp235
F8.4407485663607
aF7.40826081394746
aF6.566025884151478
aF0.0013399332160222222
aF0.04990696731896817
aF0.9240217710462983
atp236
Rp237
(dp238
g26
I27
sg27
g2
(g28
g4
Ntp239
Rp240
(dp241
g32
g88
sg34
(F-10.43478260869565
F-3.3557867251328806
F-9.900295825572973
F-2.310231023102852
F-4.44460277249552
F-25.298609893967964
F-25.54385964912281
F-12.643557965433073
F-0.6569782395453264
F-80.43982099525999
F-1.856504213013691
F-69.70139237236982
F-10.274841437631407
tp242
sbsbsI28
g2
(g20
g21
(lp243
F1.5605436141357414
aF4.687277761993222
aF7.3262503127993766
aF0.007111946577775828
aF0.0468220356959143
aF0.38952038461623756
atp244
Rp245
(dp246
g26
I28
sg27
g2
(g28
g4
Ntp247
Rp248
(dp249
g32
g97
sg34
(F-0.8695652173913042
F-3.3585372782937966
F-0.7053898482471379
F-11.61716171617434
F-10.805503066616454
F-1.8231235664085805
F-6.947368421052632
F-9.342981250011924
F-0.9206984884551641
F-71.88999144231047
F-4.257016628855247
F-7.5612510946320555
F-8.167723749119281
tp250
sbsbsI29
g2
(g20
g21
(lp251
F5.531786269441057
aF6.043733415461663
aF3.659080543241897
aF0.0024838513579583305
aF0.047675587365539576
aF0.8461974338085709
atp252
Rp253
(dp254
g26
I29
sg27
g2
(g28
g4
Ntp255
Rp256
(dp257
g32
g106
sg34
(F-10.43478260869565
F-3.3560335399533283
F-10.456569003002361
F-7.458745874589208
F-16.115276581631225
F-6.494556035296927
F-38.94736842105263
F-11.771179525252155
F-0.6921090221008729
F-35.820060800586745
F-8.170761420324098
F-40.76491491946698
F-4.115574348133078
tp258
sbsbsI30
g2
(g20
g21
(lp259
F7.725619554084025
aF6.054421676632496
aF0.7351834996752842
aF0.00507291427288525
aF0.03987023263729039
aF0.41431405786937436
atp260
Rp261
(dp262
g26
I30
sg27
g2
(g28
g4
Ntp263
Rp264
(dp265
g32
g115
sg34
(F-5.217391304347825
F-3.3583218548684632
F-5.132540179503309
F-11.815181518154585
F-15.70327302020808
F-0.7133363214056866
F-18.45614035087719
F-14.946604547497389
F-0.9077659668203479
F-10.108360564570281
F-14.947025246934711
F-48.36556533627435
F-1.5321477428161612
tp266
sbsbsI31
g2
(g20
g21
(lp267
F5.250724677564164
aF6.054421676632496
aF0.7314479694528793
aF0.0024274754614333222
aF0.03987023263729039
aF0.41431405786937436
atp268
Rp269
(dp270
g26
I31
sS'ibea_fitness'
p271
cnumpy.core.multiarray
scalar
p272
(cnumpy
dtype
p273
(S'f8'
p274
I0
I1
tp275
Rp276
(I3
S'<'
p277
NNNI-1
I-1
I0
tp278
bS'\x0cd\xbd,\xa0\xb5\xd2?'
p279
tp280
Rp281
sg27
g2
(g28
g4
Ntp282
Rp283
(dp284
g32
g115
sg34
g116
sbsbsI32
g2
(g20
g21
(lp285
F6.655292538138524
aF7.9717441709009265
aF0.4501881042402506
aF0.0031673823825556216
aF0.03534010144749427
aF0.4327671246283466
atp286
Rp287
(dp288
g26
I32
sg271
g272
(g276
S'Xk\xe5\xda\x16T\xd0?'
p289
tp290
Rp291
sg27
g2
(g28
g4
Ntp292
Rp293
(dp294
g32
g43
sg34
g202
sbsbsI33
g2
(g20
g21
(lp295
F5.531786269441057
aF6.043733415461663
aF3.659080543241897
aF0.0024838513579583305
aF0.047675587365539576
aF0.8461974338085709
atp296
Rp297
(dp298
g26
I33
sg271
g272
(g276
S'\x10\xf7(\xd7/\x8a\xb4?'
p299
tp300
Rp301
sg27
g2
(g28
g4
Ntp302
Rp303
(dp304
g32
g106
sg34
g258
sbsbsI34
g2
(g20
g21
(lp305
F8.4407485663607
aF7.40826081394746
aF6.566025884151478
aF0.0013399332160222222
aF0.04990696731896817
aF0.9240217710462983
atp306
Rp307
(dp308
g26
I34
sg271
g272
(g276
S'0\xfbnB\x9d\x0b\xd3?'
p309
tp310
Rp311
sg27
g2
(g28
g4
Ntp312
Rp313
(dp314
g32
g88
sg34
g242
sbsbsI35
g2
(g20
g21
(lp315
F8.368342655433539
aF6.834933437575082
aF3.312337704956009
aF0.0058758473033749805
aF0.0441239617936928
aF0.8461974338085709
atp316
Rp317
(dp318
g26
I35
sg271
g272
(g276
S'\x98&\xb7\xe7A\x1c\xd2?'
p319
tp320
Rp321
sg27
g2
(g28
g4
Ntp322
Rp323
(dp324
g32
g106
sg34
g107
sbsbsI36
g2
(g20
g21
(lp325
F7.717888791596243
aF0.4202181121706627
aF4.675717062926094
aF0.007215428169404592
aF0.011438188187300505
aF0.9452707010268527
atp326
Rp327
(dp328
g26
I36
sg271
g272
(g276
S'\x00\xae\x80\xfbud\xb9?'
p329
tp330
Rp331
sg27
g2
(g28
g4
Ntp332
Rp333
(dp334
g32
g52
sg34
g53
sbsbsI37
g2
(g20
g21
(lp335
F1.5605436141357414
aF4.687277761993222
aF7.3262503127993766
aF0.007111946577775828
aF0.0468220356959143
aF0.38952038461623756
atp336
Rp337
(dp338
g26
I37
sg271
g272
(g276
S'`F\x12\x1c\x07\x10\xb2?'
p339
tp340
Rp341
sg27
g2
(g28
g4
Ntp342
Rp343
(dp344
g32
g97
sg34
g250
sbsbsI38
g2
(g20
g21
(lp345
F5.250724677564164
aF6.054421676632496
aF0.7314479694528793
aF0.0024274754614333222
aF0.03987023263729039
aF0.41431405786937436
atp346
Rp347
(dp348
g26
I38
sg271
g272
(g276
S'\x0cd\xbd,\xa0\xb5\xd2?'
p349
tp350
Rp351
sg27
g2
(g28
g4
Ntp352
Rp353
(dp354
g32
g115
sg34
g116
sbsbsI39
g2
(g20
g21
(lp355
F6.655292538138524
aF7.9717441709009265
aF0.4501881042402506
aF0.0031673823825556216
aF0.03534010144749427
aF0.4327671246283466
atp356
Rp357
(dp358
g26
I39
sg271
g272
(g276
S'Xk\xe5\xda\x16T\xd0?'
p359
tp360
Rp361
sg27
g2
(g28
g4
Ntp362
Rp363
(dp364
g32
g43
sg34
g202
sbsbsI40
g2
(g20
g21
(lp365
F5.531786269441057
aF6.043733415461663
aF3.659080543241897
aF0.0024838513579583305
aF0.047675587365539576
aF0.8461974338085709
atp366
Rp367
(dp368
g26
I40
sg271
g272
(g276
S'\x10\xf7(\xd7/\x8a\xb4?'
p369
tp370
Rp371
sg27
g2
(g28
g4
Ntp372
Rp373
(dp374
g32
g106
sg34
g258
sbsbsI41
g2
(g20
g21
(lp375
F5.287396094098518
aF4.535165195284498
aF0.7368783222039659
aF0.003987395964271889
aF0.04531695112212308
aF0.4321536528937817
atp376
Rp377
(dp378
g26
I41
sg271
g272
(g276
S'\x0cd\xbd,\xa0\xb5\xd2?'
p379
tp380
Rp381
sg27
g2
(g28
g4
Ntp382
Rp383
(dp384
g32
g115
sg34
(F-10.43478260869565
F-3.358126120076246
F-10.294798905032764
F-14.125412541257438
F-11.145575139359634
F-3.8016489830514817
F-309.12280701754383
F-4.768456566275127
F-0.9065027623276964
F-3.9519020236501388
F-16.67863926045271
F-13.228050410952617
F-2.1705426356615707
tp385
sbsbsI42
g2
(g20
g21
(lp386
F8.369768231412849
aF8.577600252325706
aF0.44521933609156583
aF0.0023745729536793253
aF0.027878417689267944
aF0.41518776729896173
atp387
Rp388
(dp389
g26
I42
sg271
g272
(g276
S'Xk\xe5\xda\x16T\xd0?'
p390
tp391
Rp392
sg27
g2
(g28
g4
Ntp393
Rp394
(dp395
g32
g43
sg34
(F-19.999999999999996
F-3.358326108520041
F-250.0
F-250.0
F-250.0
F-250.0
F-250.0
F-250.0
F-0.9041179057062981
F-9.9515508427243
F-15.13655593400573
F-250.0
F-250.0
tp396
sbsbsI43
g2
(g20
g21
(lp397
F9.519618271003
aF7.4236118562511795
aF3.2721069793135973
aF0.0024495841886588467
aF0.0499104720648511
aF0.9379084586487689
atp398
Rp399
(dp400
g26
I43
sg271
g272
(g276
S'\x10\xf7(\xd7/\x8a\xb4?'
p401
tp402
Rp403
sg27
g2
(g28
g4
Ntp404
Rp405
(dp406
g32
g106
sg34
(F-10.43478260869565
F-3.3555864375208526
F-10.643524157531285
F-2.3762376237629335
F-11.667000937218269
F-7.308377266919773
F-31.36842105263158
F-3.0151558904222333
F-0.6489640782208126
F-42.52911239371892
F-6.4858930103478105
F-69.30918629140385
F-8.978153629316454
tp407
sbsbsI44
g2
(g20
g21
(lp408
F5.285098840438438
aF7.40826081394746
aF6.440565054780535
aF0.0018718434012724562
aF0.04763820254993244
aF0.6623363588637032
atp409
Rp410
(dp411
g26
I44
sg271
g272
(g276
S'0\xfbnB\x9d\x0b\xd3?'
p412
tp413
Rp414
sg27
g2
(g28
g4
Ntp415
Rp416
(dp417
g32
g88
sg34
(F-7.826086956521738
F-3.357411792185428
F-8.18529707955659
F-5.082508250826274
F-11.004377347454085
F-30.61687681094052
F-20.49122807017544
F-4.590589618398892
F-0.7853291265682159
F-70.46535122301592
F-3.5358039382213136
F-39.99474721412006
F-2.9346622369888076
tp418
sbsbsI45
g2
(g20
g21
(lp419
F8.35480988774027
aF6.834933437575082
aF3.312337704956009
aF0.0058758473033749805
aF0.011641122449285984
aF0.7878105910806611
atp420
Rp421
(dp422
g26
I45
sg271
g272
(g276
S'\x98&\xb7\xe7A\x1c\xd2?'
p423
tp424
Rp425
sg27
g2
(g28
g4
Ntp426
Rp427
(dp428
g32
g106
sg34
(F-19.999999999999996
F-3.356224469016918
F-250.0
F-250.0
F-250.0
F-250.0
F-250.0
F-250.0
F-0.6845636890075898
F-39.0996242232803
F-7.178418945370343
F-250.0
F-250.0
tp429
sbsbsI46
g2
(g20
g21
(lp430
F7.731421559251656
aF0.5521563077063796
aF4.3818147630273
aF0.006032181229280915
aF0.04626583222857148
aF0.9254300065852167
atp431
Rp432
(dp433
g26
I46
sg271
g272
(g276
S'\x00\xae\x80\xfbud\xb9?'
p434
tp435
Rp436
sg27
g2
(g28
g4
Ntp437
Rp438
(dp439
g32
g52
sg34
(F-18.26086956521739
F-3.355783852375574
F-17.152081563297205
F-2.2442244224427705
F-250.0
F-250.0
F-374.10526315789474
F-250.0
F-0.6430602092089709
F-49.28532319849257
F-5.565724805644746
F-63.230523642698515
F-7.51937984495794
tp440
sbsbsI47
g2
(g20
g21
(lp441
F0.435124926205648
aF4.687277761993222
aF7.352134332385012
aF0.0067555533677820905
aF0.047781118560259066
aF0.38910512111800555
atp442
Rp443
(dp444
g26
I47
sg271
g272
(g276
S'`F\x12\x1c\x07\x10\xb2?'
p445
tp446
Rp447
sg27
g2
(g28
g4
Ntp448
Rp449
(dp450
g32
g97
sg34
(F-7.826086956521738
F-3.3588758153867313
F-7.591315979010392
F-13.33333333333646
F-8.884058412475184
F-6.837466607376339
F-11.43859649122807
F-8.53092152509544
F-0.9235345027422455
F-69.03947618931815
F-4.738833281874981
F-24.49742317132739
F-9.859496124030725
tp451
sbsbsI48
g2
(g20
g21
(lp452
F5.2130535382025975
aF5.887475377562374
aF0.7647474999219255
aF0.0027838917153490427
aF0.03987023263729039
aF0.44573473547869047
atp453
Rp454
(dp455
g26
I48
sg271
g272
(g276
S'\x0cd\xbd,\xa0\xb5\xd2?'
p456
tp457
Rp458
sg27
g2
(g28
g4
Ntp459
Rp460
(dp461
g32
g115
sg34
(F-4.3478260869565215
F-3.3581186112000014
F-4.689403166869375
F-13.861386138617112
F-8.955576099678938
F-5.3530717949882956
F-14.385964912280702
F-9.08261150087782
F-0.8970324258505671
F-4.449089032015722
F-16.578228226898446
F-22.71879182251564
F-2.0844099913852
tp462
sbsbsI49
g2
(g20
g21
(lp463
F6.651341212959298
aF5.934078615045186
aF1.2089485545177419
aF0.0031673823825556216
aF0.03744295188163692
aF0.7939987916867577
atp464
Rp465
(dp466
g26
I49
sg271
g272
(g276
S'Xk\xe5\xda\x16T\xd0?'
p467
tp468
Rp469
sg27
g2
(g28
g4
Ntp470
Rp471
(dp472
g32
g43
sg34
(F-17.391304347826086
F-3.356303604476595
F-16.748156771440364
F-10.165016501652548
F-250.0
F-7.375310268131884
F-465.26315789473676
F-250.0
F-0.708081611806476
F-13.318794876265127
F-13.814421614394243
F-52.02818304203317
F-4.547803617572378
tp473
sbsbsI50
g2
(g20
g21
(lp474
F5.556185592854555
aF8.081397922032144
aF3.6014378117289683
aF0.0024838513579583305
aF0.047675587365539576
aF0.48495031699889424
atp475
Rp476
(dp477
g26
I50
sg271
g272
(g276
S'\x10\xf7(\xd7/\x8a\xb4?'
p478
tp479
Rp480
sg27
g2
(g28
g4
Ntp481
Rp482
(dp483
g32
g106
sg34
(F-7.826086956521738
F-3.357912907361914
F-8.175771013908186
F-9.636963696371897
F-16.958698589134944
F-13.84301915304683
F-29.05263157894737
F-15.04668639537693
F-0.8831304155100452
F-35.74823176251628
F-8.645311196584123
F-31.076250222467582
F-1.5060908084136158
tp484
sbsbsI51
g2
(g20
g21
(lp485
F5.285098840438438
aF7.40826081394746
aF6.440565054780535
aF0.0018718434012724562
aF0.04763820254993244
aF0.6623363588637032
atp486
Rp487
(dp488
g26
I51
sg271
g272
(g276
S'@\xf8\xdc])\xcb\xb8?'
p489
tp490
Rp491
sg27
g2
(g28
g4
Ntp492
Rp493
(dp494
g32
g88
sg34
g418
sbsbsI52
g2
(g20
g21
(lp495
F8.4407485663607
aF7.40826081394746
aF6.566025884151478
aF0.0013399332160222222
aF0.04990696731896817
aF0.9240217710462983
atp496
Rp497
(dp498
g26
I52
sg271
g272
(g276
S'\x00\x96\xa3\xe4^\rj?'
p499
tp500
Rp501
sg27
g2
(g28
g4
Ntp502
Rp503
(dp504
g32
g88
sg34
g242
sbsbsI53
g2
(g20
g21
(lp505
F5.285098840438438
aF7.40826081394746
aF6.440565054780535
aF0.0018718434012724562
aF0.04763820254993244
aF0.6623363588637032
atp506
Rp507
(dp508
g26
I53
sg271
g272
(g276
S'@\xf8\xdc])\xcb\xb8?'
p509
tp510
Rp511
sg27
g2
(g28
g4
Ntp512
Rp513
(dp514
g32
g88
sg34
g418
sbsbsI54
g2
(g20
g21
(lp515
F1.5605436141357414
aF4.687277761993222
aF7.3262503127993766
aF0.007111946577775828
aF0.0468220356959143
aF0.38952038461623756
atp516
Rp517
(dp518
g26
I54
sg271
g272
(g276
S'\x00X\xe2@\x84\xecb?'
p519
tp520
Rp521
sg27
g2
(g28
g4
Ntp522
Rp523
(dp524
g32
g97
sg34
g250
sbsbsI55
g2
(g20
g21
(lp525
F9.519618271003
aF7.4236118562511795
aF3.2721069793135973
aF0.0024495841886588467
aF0.0499104720648511
aF0.9379084586487689
atp526
Rp527
(dp528
g26
I55
sg271
g272
(g276
S'H$\xd1B\x12m\xc7?'
p529
tp530
Rp531
sg27
g2
(g28
g4
Ntp532
Rp533
(dp534
g32
g106
sg34
g407
sbsbsI56
g2
(g20
g21
(lp535
F6.651341212959298
aF5.934078615045186
aF1.2089485545177419
aF0.0031673823825556216
aF0.03744295188163692
aF0.7939987916867577
atp536
Rp537
(dp538
g26
I56
sg271
g272
(g276
S"\x00\x96Fu\xfa'|?"
p539
tp540
Rp541
sg27
g2
(g28
g4
Ntp542
Rp543
(dp544
g32
g43
sg34
g473
sbsbsI57
g2
(g20
g21
(lp545
F0.435124926205648
aF4.687277761993222
aF7.352134332385012
aF0.0067555533677820905
aF0.047781118560259066
aF0.38910512111800555
atp546
Rp547
(dp548
g26
I57
sg271
g272
(g276
S'|s\xdco\xb0\xec\xe6?'
p549
tp550
Rp551
sg27
g2
(g28
g4
Ntp552
Rp553
(dp554
g32
g97
sg34
g451
sbsbsI58
g2
(g20
g21
(lp555
F5.285098840438438
aF7.40826081394746
aF6.440565054780535
aF0.0018718434012724562
aF0.04763820254993244
aF0.6623363588637032
atp556
Rp557
(dp558
g26
I58
sg271
g272
(g276
S'@\xf8\xdc])\xcb\xb8?'
p559
tp560
Rp561
sg27
g2
(g28
g4
Ntp562
Rp563
(dp564
g32
g88
sg34
g418
sbsbsI59
g2
(g20
g21
(lp565
F6.651341212959298
aF5.934078615045186
aF1.2089485545177419
aF0.0031673823825556216
aF0.03744295188163692
aF0.7939987916867577
atp566
Rp567
(dp568
g26
I59
sg271
g272
(g276
S"\x00\x96Fu\xfa'|?"
p569
tp570
Rp571
sg27
g2
(g28
g4
Ntp572
Rp573
(dp574
g32
g43
sg34
g473
sbsbsI60
g2
(g20
g21
(lp575
F6.651341212959298
aF5.934078615045186
aF1.2089485545177419
aF0.0031673823825556216
aF0.03744295188163692
aF0.7939987916867577
atp576
Rp577
(dp578
g26
I60
sg271
g272
(g276
S"\x00\x96Fu\xfa'|?"
p579
tp580
Rp581
sg27
g2
(g28
g4
Ntp582
Rp583
(dp584
g32
g43
sg34
g473
sbsbsI61
g2
(g20
g21
(lp585
F8.542994594654793
aF7.40826081394746
aF6.4562644777145515
aF0.0018718434012724562
aF0.04908605217074303
aF0.7271398574390459
atp586
Rp587
(dp588
g26
I61
sg271
g272
(g276
S'@\xf8\xdc])\xcb\xb8?'
p589
tp590
Rp591
sg27
g2
(g28
g4
Ntp592
Rp593
(dp594
g32
g88
sg34
(F-9.565217391304346
F-3.3568218280370155
F-9.327106771386331
F-0.3960396039604889
F-9.002903449943455
F-29.405116128514
F-24.42105263157895
F-1.6121666760205355
F-0.7522516755829283
F-79.26979095038291
F-2.0854470800607072
F-66.89281458562475
F-6.627906976744028
tp595
sbsbsI62
g2
(g20
g21
(lp596
F4.288155105589568
aF7.40826081394746
aF6.5503264612174625
aF2.126482042352361e-05
aF0.04918283096932478
aF0.9691758053422892
atp597
Rp598
(dp599
g26
I62
sg271
g272
(g276
S'\x00\x96\xa3\xe4^\rj?'
p600
tp601
Rp602
sg27
g2
(g28
g4
Ntp603
Rp604
(dp605
g32
g88
sg34
(F-8.695652173913043
F-3.3561757939349106
F-8.85752275749193
F-3.366336633664156
F-0.16773001925612824
F-9.556193738895972
F-14.666666666666666
F-16.25762668360355
F-0.6406914458348765
F-68.93244612642052
F-3.5697619074991964
F-33.92059869059176
F-7.107930828861082
tp606
sbsbsI63
g2
(g20
g21
(lp607
F5.285098840438438
aF4.629517206133956
aF6.440565054780535
aF0.002468190171682158
aF0.04763820254993244
aF0.3732058454125504
atp608
Rp609
(dp610
g26
I63
sg271
g272
(g276
S'@\xf8\xdc])\xcb\xb8?'
p611
tp612
Rp613
sg27
g2
(g28
g4
Ntp614
Rp615
(dp616
g32
g88
sg34
(F-8.695652173913043
F-3.358408714288213
F-9.09181936517439
F-7.788778877889615
F-17.075371378669907
F-28.530425759135415
F-40.21052631578947
F-25.279359928567157
F-0.9468370061850427
F-69.65144174595814
F-3.881008210640643
F-32.6933464870598
F-1.3953488372074754
tp617
sbsbsI64
g2
(g20
g21
(lp618
F1.8180701060796762
aF7.466020272083162
aF7.3262503127993766
aF0.007111946577775828
aF0.0468220356959143
aF0.678650866699403
atp619
Rp620
(dp621
g26
I64
sg271
g272
(g276
S'\x00X\xe2@\x84\xecb?'
p622
tp623
Rp624
sg27
g2
(g28
g4
Ntp625
Rp626
(dp627
g32
g97
sg34
(F-1.7391304347826084
F-3.35684129620075
F-1.7481573756877316
F-8.514851485150512
F-2.315305608934747
F-1.9550913136210561
F-9.192982456140351
F-6.907353239126254
F-0.7609421489464822
F-72.06678516153
F-3.785763775398691
F-2.9919220272312366
F-9.302325581394946
tp628
sbsbsI65
g2
(g20
g21
(lp629
F9.445152540157759
aF6.883926577311594
aF1.1431922106954873
aF0.0024495841886588467
aF0.0499104720648511
aF0.974573323409414
atp630
Rp631
(dp632
g26
I65
sg271
g272
(g276
S'H$\xd1B\x12m\xc7?'
p633
tp634
Rp635
sg27
g2
(g28
g4
Ntp636
Rp637
(dp638
g32
g106
sg34
(F-15.652173913043477
F-3.3554046501389236
F-14.804067460318352
F-7.458745874589208
F-142.32318965903136
F-9.513897233229336
F-208.4210526315789
F-14.958612001645173
F-0.6326015295018197
F-18.7507047610876
F-11.689893338724508
F-55.25552158607478
F-4.310077519378939
tp639
sbsbsI66
g2
(g20
g21
(lp640
F4.841903842282234
aF5.934078615045186
aF3.338115897302372
aF0.0028666976117597246
aF0.03744295188163692
aF0.795205530551263
atp641
Rp642
(dp643
g26
I66
sg271
g272
(g276
S"\x00\x96Fu\xfa'|?"
p644
tp645
Rp646
sg27
g2
(g28
g4
Ntp647
Rp648
(dp649
g32
g43
sg34
(F-15.652173913043477
F-3.356340396168545
F-14.369036419837423
F-7.7227722772295335
F-157.66020809580223
F-10.134176802332258
F-56.49122807017544
F-62.766730352591566
F-0.7085231190686774
F-30.643860660794893
F-9.379695775805855
F-54.21370248876483
F-5.73643410852336
tp650
sbsbsI67
g2
(g20
g21
(lp651
F0.435124926205648
aF5.092527651800856
aF7.352386469349715
aF0.0059880107852572535
aF0.04778032663168541
aF0.2351439897760876
atp652
Rp653
(dp654
g26
I67
sg271
g272
(g276
S'|s\xdco\xb0\xec\xe6?'
p655
tp656
Rp657
sg27
g2
(g28
g4
Ntp658
Rp659
(dp660
g32
g97
sg34
(F-10.43478260869565
F-3.3595042949328535
F-9.809940034556897
F-14.125412541257438
F-9.823704153190075
F-9.082365065998207
F-12.0
F-9.35284325099941
F-1.0210815259821955
F-69.206287234261
F-4.912824367326265
F-32.51165887837657
F-8.181616832779618
tp661
sbsbsI68
g2
(g20
g21
(lp662
F5.285098840438438
aF7.427935924675775
aF6.440312917801464
aF0.0021986324953561895
aF0.047638994478506086
aF0.6595747343142409
atp663
Rp664
(dp665
g26
I68
sg271
g272
(g276
S'@\xf8\xdc])\xcb\xb8?'
p666
tp667
Rp668
sg27
g2
(g28
g4
Ntp669
Rp670
(dp671
g32
g88
sg34
(F-7.826086956521738
F-3.3573742337184265
F-8.124304079360002
F-5.082508250826274
F-10.98316363243975
F-31.347199225918885
F-20.42105263157895
F-4.993931246851784
F-0.7857483329649739
F-69.2559576429185
F-3.5366768762587206
F-39.644889994048405
F-2.934662236987649
tp672
sbsbsI69
g2
(g20
g21
(lp673
F6.651341212959298
aF6.046766722427825
aF1.9360639708995842
aF0.0031673823825556216
aF0.03389133526036354
aF0.7939987916867577
atp674
Rp675
(dp676
g26
I69
sg271
g272
(g276
S"\x00\x96Fu\xfa'|?"
p677
tp678
Rp679
sg27
g2
(g28
g4
Ntp680
Rp681
(dp682
g32
g43
sg34
(F-18.26086956521739
F-3.3563393534267765
F-18.088721633025596
F-7.7227722772295335
F-250.0
F-250.0
F-582.315789473586
F-250.0
F-0.7051523618466646
F-20.9541034512629
F-11.762512938382052
F-61.26667038933773
F-3.9534883720968876
tp683
sbsbsI70
g2
(g20
g21
(lp684
F6.651341212959298
aF7.229228651950876
aF1.2089485545177419
aF0.0030370286694117905
aF0.03744295188163692
aF0.7939987916867577
atp685
Rp686
(dp687
g26
I70
sg271
g272
(g276
S"\x00\x96Fu\xfa'|?"
p688
tp689
Rp690
sg27
g2
(g28
g4
Ntp691
Rp692
(dp693
g32
g43
sg34
(F-17.391304347826086
F-3.356305661899796
F-15.170028818444967
F-10.165016501652548
F-250.0
F-5.703449828262685
F-293.4736842105263
F-250.0
F-0.7086136696350714
F-13.519103974714882
F-13.758163159353916
F-51.276553807085584
F-3.3591731266105866
tp694
sbsbsI71
g2
(g20
g21
(lp695
F4.841903842282234
aF5.934078615045186
aF3.338115897302372
aF0.0028666976117597246
aF0.03744295188163692
aF0.795205530551263
atp696
Rp697
(dp698
g26
I71
sg271
g272
(g276
S'\x00AUtI\xdaw?'
p699
tp700
Rp701
sg27
g2
(g28
g4
Ntp702
Rp703
(dp704
g32
g43
sg34
g650
sbsbsI72
g2
(g20
g21
(lp705
F5.285098840438438
aF4.629517206133956
aF6.440565054780535
aF0.002468190171682158
aF0.04763820254993244
aF0.3732058454125504
atp706
Rp707
(dp708
g26
I72
sg271
g272
(g276
S'\xb0\x1b\xf9\x88\\\xf6\xbf?'
p709
tp710
Rp711
sg27
g2
(g28
g4
Ntp712
Rp713
(dp714
g32
g88
sg34
g617
sbsbsI73
g2
(g20
g21
(lp715
F4.288155105589568
aF7.40826081394746
aF6.5503264612174625
aF2.126482042352361e-05
aF0.04918283096932478
aF0.9691758053422892
atp716
Rp717
(dp718
g26
I73
sg271
g272
(g276
S'\x00\x0e\x19\xad\xd1eh?'
p719
tp720
Rp721
sg27
g2
(g28
g4
Ntp722
Rp723
(dp724
g32
g88
sg34
g606
sbsbsI74
g2
(g20
g21
(lp725
F9.445152540157759
aF6.883926577311594
aF1.1431922106954873
aF0.0024495841886588467
aF0.0499104720648511
aF0.974573323409414
atp726
Rp727
(dp728
g26
I74
sg271
g272
(g276
S'\x80\x0f\xb0\x1e\xd4`\x85?'
p729
tp730
Rp731
sg27
g2
(g28
g4
Ntp732
Rp733
(dp734
g32
g106
sg34
g639
sbsbsI75
g2
(g20
g21
(lp735
F4.288155105589568
aF7.40826081394746
aF6.5503264612174625
aF2.126482042352361e-05
aF0.04918283096932478
aF0.9691758053422892
atp736
Rp737
(dp738
g26
I75
sg271
g272
(g276
S'\x00\x0e\x19\xad\xd1eh?'
p739
tp740
Rp741
sg27
g2
(g28
g4
Ntp742
Rp743
(dp744
g32
g88
sg34
g606
sbsbsI76
g2
(g20
g21
(lp745
F9.519618271003
aF7.4236118562511795
aF3.2721069793135973
aF0.0024495841886588467
aF0.0499104720648511
aF0.9379084586487689
atp746
Rp747
(dp748
g26
I76
sg271
g272
(g276
S'\x00t!\x1a\x8b\xdfR?'
p749
tp750
Rp751
sg27
g2
(g28
g4
Ntp752
Rp753
(dp754
g32
g106
sg34
g407
sbsbsI77
g2
(g20
g21
(lp755
F9.519618271003
aF7.4236118562511795
aF3.2721069793135973
aF0.0024495841886588467
aF0.0499104720648511
aF0.9379084586487689
atp756
Rp757
(dp758
g26
I77
sg271
g272
(g276
S'\x00t!\x1a\x8b\xdfR?'
p759
tp760
Rp761
sg27
g2
(g28
g4
Ntp762
Rp763
(dp764
g32
g106
sg34
g407
sbsbsI78
g2
(g20
g21
(lp765
F1.8180701060796762
aF7.466020272083162
aF7.3262503127993766
aF0.007111946577775828
aF0.0468220356959143
aF0.678650866699403
atp766
Rp767
(dp768
g26
I78
sg271
g272
(g276
S'\x00\xf0\x84\x1e\x17oA?'
p769
tp770
Rp771
sg27
g2
(g28
g4
Ntp772
Rp773
(dp774
g32
g97
sg34
g628
sbsbsI79
g2
(g20
g21
(lp775
F4.288155105589568
aF7.40826081394746
aF6.5503264612174625
aF2.126482042352361e-05
aF0.04918283096932478
aF0.9691758053422892
atp776
Rp777
(dp778
g26
I79
sg271
g272
(g276
S'\x00\x0e\x19\xad\xd1eh?'
p779
tp780
Rp781
sg27
g2
(g28
g4
Ntp782
Rp783
(dp784
g32
g88
sg34
g606
sbsbsI80
g2
(g20
g21
(lp785
F9.519618271003
aF7.4236118562511795
aF3.2721069793135973
aF0.0024495841886588467
aF0.0499104720648511
aF0.9379084586487689
atp786
Rp787
(dp788
g26
I80
sg271
g272
(g276
S'\x00t!\x1a\x8b\xdfR?'
p789
tp790
Rp791
sg27
g2
(g28
g4
Ntp792
Rp793
(dp794
g32
g106
sg34
g407
sbsbsI81
g2
(g20
g21
(lp795
F4.85686810827491
aF7.3962826173491845
aF3.338115897302372
aF0.0024643992446130815
aF0.03027792129674934
aF0.35514223127617855
atp796
Rp797
(dp798
g26
I81
sg271
g272
(g276
S'\x00AUtI\xdaw?'
p799
tp800
Rp801
sg27
g2
(g28
g4
Ntp802
Rp803
(dp804
g32
g43
sg34
(F-8.695652173913043
F-3.3587047845663203
F-8.734229576008238
F-9.372937293731571
F-16.973434631842764
F-11.367333955575988
F-31.859649122807017
F-14.145164261462266
F-0.9411503905230477
F-31.14122870374268
F-9.87963745261367
F-58.76756363955569
F-1.8723911747207085
tp805
sbsbsI82
g2
(g20
g21
(lp806
F7.8660526346248325
aF4.675656497110177
aF5.323371426214351
aF0.0033466352290522274
aF0.04763820254993244
aF0.8173260826584965
atp807
Rp808
(dp809
g26
I82
sg271
g272
(g276
S'\xb0\x1b\xf9\x88\\\xf6\xbf?'
p810
tp811
Rp812
sg27
g2
(g28
g4
Ntp813
Rp814
(dp815
g32
g88
sg34
(F-11.304347826086955
F-3.3566099050982636
F-11.200252021421912
F-1.6501650165020372
F-15.559318094038076
F-18.42920467738242
F-41.26315789473684
F-9.56130722439709
F-0.7029637299124183
F-63.09025099299141
F-3.9237708931189865
F-65.40457774899309
F-6.806201550386946
tp816
sbsbsI83
g2
(g20
g21
(lp817
F4.24682221877613
aF4.770100204944841
aF7.53731537135373
aF0.001434460577256251
aF0.04986720535271723
aF0.9691758053422892
atp818
Rp819
(dp820
g26
I83
sg271
g272
(g276
S'\x00\x0e\x19\xad\xd1eh?'
p821
tp822
Rp823
sg27
g2
(g28
g4
Ntp824
Rp825
(dp826
g32
g88
sg34
(F-14.782608695652172
F-3.3553707001231903
F-14.597614698614112
F-1.9801980198024445
F-17.84565224895617
F-15.929100993219546
F-33.26315789473684
F-24.461119697019775
F-0.6349809460025752
F-81.24406570130269
F-2.3632882635224184
F-33.79773596615543
F-8.11369509043816
tp827
sbsbsI84
g2
(g20
g21
(lp828
F9.326869768165988
aF7.546290536993555
aF0.6609339134172085
aF4.839545564469636e-05
aF0.04922476961349366
aF0.974573323409414
atp829
Rp830
(dp831
g26
I84
sg271
g272
(g276
S'\x80\x0f\xb0\x1e\xd4`\x85?'
p832
tp833
Rp834
sg27
g2
(g28
g4
Ntp835
Rp836
(dp837
g32
g106
sg34
(F-14.782608695652172
F-3.355334769250075
F-13.50639287098164
F-9.174917491751327
F-111.59097613910639
F-10.9900774911105
F-24.982456140350877
F-436.02426935744137
F-0.6389074466525753
F-14.488112399583898
F-13.105410143705155
F-55.40759943732539
F-3.953488372092158
tp838
sbsbsI85
g2
(g20
g21
(lp839
F4.743964852817648
aF9.644619697828006
aF3.6515046269166502
aF2.126482042352361e-05
aF0.04918283096932478
aF0.9691758053422892
atp840
Rp841
(dp842
g26
I85
sg271
g272
(g276
S'\x00\x0e\x19\xad\xd1eh?'
p843
tp844
Rp845
sg27
g2
(g28
g4
Ntp846
Rp847
(dp848
g32
g88
sg34
(F-7.826086956521738
F-3.3552400601549754
F-8.031014078759258
F-7.656765676569452
F-6.040239985991508
F-11.22339729700299
F-19.157894736842106
F-5.29132613898812
F-0.6416911207802327
F-35.125043092119014
F-8.41458437284237
F-31.32297428678558
F-5.991140642303203
tp849
sbsbsI86
g2
(g20
g21
(lp850
F9.047871636623535
aF6.449304685187601
aF6.208302293541232
aF0.0021365788719372113
aF0.0499104720648511
aF0.9721936353987544
atp851
Rp852
(dp853
g26
I86
sg271
g272
(g276
S'\x00t!\x1a\x8b\xdfR?'
p854
tp855
Rp856
sg27
g2
(g28
g4
Ntp857
Rp858
(dp859
g32
g106
sg34
(F-17.391304347826086
F-3.355672155580784
F-6.125827814572527
F-3.234323432343993
F-250.0
F-29.406980912378934
F-27.43859649122807
F-250.0
F-0.6332329563877461
F-76.98067647661584
F-2.040610043109269
F-71.6191784653805
F-12.86821705426168
tp860
sbsbsI87
g2
(g20
g21
(lp861
F1.3839934865359798
aF7.055667702289325
aF3.627017761921942
aF0.0024495841886588467
aF0.04678845892044135
aF0.9861268150134795
atp862
Rp863
(dp864
g26
I87
sg271
g272
(g276
S'\x00t!\x1a\x8b\xdfR?'
p865
tp866
Rp867
sg27
g2
(g28
g4
Ntp868
Rp869
(dp870
g32
g106
sg34
(F-0.0
F-3.3553331743685932
F-0.008304785632713842
F-12.409240924095318
F-1.6769209549532231
F-1.9929066809799165
F-0.9122807017543859
F-0.7592342638402091
F-0.6232218770122472
F-27.01870599326718
F-10.615809279912025
F-7.5058062752561
F-11.627906976743727
tp871
sbsbsI88
g2
(g20
g21
(lp872
F7.968974175771088
aF7.466020272083162
aF8.32854463893764
aF0.007111946577775828
aF0.04989342269760137
aF0.678650866699403
atp873
Rp874
(dp875
g26
I88
sg271
g272
(g276
S'\x00\xf0\x84\x1e\x17oA?'
p876
tp877
Rp878
sg27
g2
(g28
g4
Ntp879
Rp880
(dp881
g32
g97
sg34
(F-8.695652173913043
F-3.3561324380979958
F-8.717895608947783
F-0.8580858085810593
F-10.652842367940618
F-42.121654805019006
F-9.964912280701755
F-3.1663798608541476
F-0.7597331403584097
F-89.0469822733603
F-0.27465063062264866
F-63.489067139847336
F-4.639236732259668
tp882
sbsbsI89
g2
(g20
g21
(lp883
F9.455384822915835
aF7.40826081394746
aF3.25484303565221
aF2.126482042352361e-05
aF0.04918283096932478
aF0.9691758053422892
atp884
Rp885
(dp886
g26
I89
sg271
g272
(g276
S'\x00\x0e\x19\xad\xd1eh?'
p887
tp888
Rp889
sg27
g2
(g28
g4
Ntp890
Rp891
(dp892
g32
g88
sg34
(F-11.304347826086955
F-3.3554394724946865
F-10.850529533792319
F-2.2442244224427705
F-10.949058071509906
F-5.971619101757108
F-32.63157894736842
F-0.984888023392449
F-0.6404510531860378
F-42.58147904736477
F-6.544876654518564
F-71.23809255945392
F-12.155038759689063
tp893
sbsbsI90
g2
(g20
g21
(lp894
F4.333422498028755
aF8.975247604580005
aF6.609899746949683
aF0.0023861226203986305
aF0.0499104720648511
aF0.9379084586487689
atp895
Rp896
(dp897
g26
I90
sg271
g272
(g276
S'\x00t!\x1a\x8b\xdfR?'
p898
tp899
Rp900
sg27
g2
(g28
g4
Ntp901
Rp902
(dp903
g32
g106
sg34
(F-6.956521739130434
F-3.355761300444366
F-6.828041496384897
F-3.696369636964563
F-1.4212265675872338
F-7.396080904119575
F-10.035087719298245
F-15.533168719787032
F-0.6492082489776358
F-70.31761017298345
F-3.4450566749266396
F-31.494649102102265
F-6.211886304908887
tp904
sbsbsI91
g2
(g20
g21
(lp905
F1.8180701060796762
aF7.466020272083162
aF7.3262503127993766
aF0.007111946577775828
aF0.0468220356959143
aF0.678650866699403
atp906
Rp907
(dp908
g26
I91
sg271
g272
(g276
S'\x00\xe8Y\xe0\xff=F?'
p909
tp910
Rp911
sg27
g2
(g28
g4
Ntp912
Rp913
(dp914
g32
g97
sg34
g628
sbsbsI92
g2
(g20
g21
(lp915
F5.285098840438438
aF4.629517206133956
aF6.440565054780535
aF0.002468190171682158
aF0.04763820254993244
aF0.3732058454125504
atp916
Rp917
(dp918
g26
I92
sg271
g272
(g276
S'\x00,{\xd3\x88\x98P?'
p919
tp920
Rp921
sg27
g2
(g28
g4
Ntp922
Rp923
(dp924
g32
g88
sg34
g617
sbsbsI93
g2
(g20
g21
(lp925
F4.743964852817648
aF9.644619697828006
aF3.6515046269166502
aF2.126482042352361e-05
aF0.04918283096932478
aF0.9691758053422892
atp926
Rp927
(dp928
g26
I93
sg271
g272
(g276
S'\x00\xe0\x8d\x8cs\x10E?'
p929
tp930
Rp931
sg27
g2
(g28
g4
Ntp932
Rp933
(dp934
g32
g88
sg34
g849
sbsbsI94
g2
(g20
g21
(lp935
F1.8180701060796762
aF7.466020272083162
aF7.3262503127993766
aF0.007111946577775828
aF0.0468220356959143
aF0.678650866699403
atp936
Rp937
(dp938
g26
I94
sg271
g272
(g276
S'\x00\xe8Y\xe0\xff=F?'
p939
tp940
Rp941
sg27
g2
(g28
g4
Ntp942
Rp943
(dp944
g32
g97
sg34
g628
sbsbsI95
g2
(g20
g21
(lp945
F4.743964852817648
aF9.644619697828006
aF3.6515046269166502
aF2.126482042352361e-05
aF0.04918283096932478
aF0.9691758053422892
atp946
Rp947
(dp948
g26
I95
sg271
g272
(g276
S'\x00\xe0\x8d\x8cs\x10E?'
p949
tp950
Rp951
sg27
g2
(g28
g4
Ntp952
Rp953
(dp954
g32
g88
sg34
g849
sbsbsI96
g2
(g20
g21
(lp955
F1.3839934865359798
aF7.055667702289325
aF3.627017761921942
aF0.0024495841886588467
aF0.04678845892044135
aF0.9861268150134795
atp956
Rp957
(dp958
g26
I96
sg271
g272
(g276
S'\x00\x80\xa9j\x90\x07\x0c?'
p959
tp960
Rp961
sg27
g2
(g28
g4
Ntp962
Rp963
(dp964
g32
g106
sg34
g871
sbsbsI97
g2
(g20
g21
(lp965
F9.326869768165988
aF7.546290536993555
aF0.6609339134172085
aF4.839545564469636e-05
aF0.04922476961349366
aF0.974573323409414
atp966
Rp967
(dp968
g26
I97
sg271
g272
(g276
S'\x00\xfb\x01\xf4Qr~?'
p969
tp970
Rp971
sg27
g2
(g28
g4
Ntp972
Rp973
(dp974
g32
g106
sg34
g838
sbsbsI98
g2
(g20
g21
(lp975
F4.24682221877613
aF4.770100204944841
aF7.53731537135373
aF0.001434460577256251
aF0.04986720535271723
aF0.9691758053422892
atp976
Rp977
(dp978
g26
I98
sg271
g272
(g276
S'\x907%\xae\xa9\x8d\xb4?'
p979
tp980
Rp981
sg27
g2
(g28
g4
Ntp982
Rp983
(dp984
g32
g88
sg34
g827
sbsbsI99
g2
(g20
g21
(lp985
F4.333422498028755
aF8.975247604580005
aF6.609899746949683
aF0.0023861226203986305
aF0.0499104720648511
aF0.9379084586487689
atp986
Rp987
(dp988
g26
I99
sg271
g272
(g276
S'\xc0I@\x98\x06\xd1\xc8?'
p989
tp990
Rp991
sg27
g2
(g28
g4
Ntp992
Rp993
(dp994
g32
g106
sg34
g904
sbsbsI100
g2
(g20
g21
(lp995
F9.326869768165988
aF7.546290536993555
aF0.6609339134172085
aF4.839545564469636e-05
aF0.04922476961349366
aF0.974573323409414
atp996
Rp997
(dp998
g26
I100
sg271
g272
(g276
S'\x00\xfb\x01\xf4Qr~?'
p999
tp1000
Rp1001
sg27
g2
(g28
g4
Ntp1002
Rp1003
(dp1004
g32
g106
sg34
g838
sbsbsI101
g2
(g20
g21
(lp1005
F2.5690618593400876
aF8.02261472362136
aF6.9868924075538725
aF0.0013750859941106448
aF0.04598431106279276
aF0.5862335776158389
atp1006
Rp1007
(dp1008
g26
I101
sg271
g272
(g276
S'\x00\xe8Y\xe0\xff=F?'
p1009
tp1010
Rp1011
sg27
g2
(g28
g4
Ntp1012
Rp1013
(dp1014
g32
g97
sg34
(F-0.8695652173913042
F-3.3577712447136188
F-1.5326054292291245
F-8.712871287130756
F-6.512149472853519
F-2.697462704052744
F-8.912280701754385
F-4.0061838807423165
F-0.8268111871596069
F-69.56207639290247
F-4.027420263997306
F-10.570381224258394
F-7.357293868921563
tp1015
sbsbsI102
g2
(g20
g21
(lp1016
F5.285098840438438
aF4.629517206133956
aF9.688661099321752
aF0.007092057773382467
aF0.04763820254993244
aF0.3732058454125504
atp1017
Rp1018
(dp1019
g26
I102
sg271
g272
(g276
S'\x00,{\xd3\x88\x98P?'
p1020
tp1021
Rp1022
sg27
g2
(g28
g4
Ntp1023
Rp1024
(dp1025
g32
g88
sg34
(F-8.695652173913043
F-3.3524437294929164
F-8.465854949709046
F-4.42244224422546
F-17.21952871692776
F-50.12134614525656
F-10.947368421052632
F-24.430870413707204
F-0.9213017209012957
F-91.80869371978775
F-0.1575030024538506
F-38.42994264762009
F-1.6338700059633122
tp1026
sbsbsI103
g2
(g20
g21
(lp1027
F4.743964852817648
aF9.718799743813268
aF5.852373851831485
aF0.006680473273225792
aF0.043403430263059435
aF0.9691758053422892
atp1028
Rp1029
(dp1030
g26
I103
sg271
g272
(g276
S'\x00\xe0\x8d\x8cs\x10E?'
p1031
tp1032
Rp1033
sg27
g2
(g28
g4
Ntp1034
Rp1035
(dp1036
g32
g88
sg34
(F-8.695652173913043
F-3.3561842624233456
F-8.341181506849637
F-1.6501650165020372
F-2.084162491786978
F-20.029728012684703
F-18.45614035087719
F-13.773507774068564
F-0.6186933761414689
F-61.3290288141512
F-4.283182223310559
F-49.45686046484155
F-6.559332140727677
tp1037
sbsbsI104
g2
(g20
g21
(lp1038
F1.3705933385929632
aF9.174891130058501
aF7.811344997372017
aF0.0006263308938668707
aF0.04737484619809213
aF0.678650866699403
atp1039
Rp1040
(dp1041
g26
I104
sg271
g272
(g276
S'\x00\xe8Y\xe0\xff=F?'
p1042
tp1043
Rp1044
sg27
g2
(g28
g4
Ntp1045
Rp1046
(dp1047
g32
g97
sg34
(F-10.43478260869565
F-3.356969659366109
F-9.611307420495404
F-8.976897689771082
F-6.3000931303439165
F-9.999062578911827
F-9.75438596491228
F-0.4246016575527411
F-0.781369932069166
F-78.04192479756341
F-3.3155579300296667
F-5.526925131772666
F-10.62679955703206
tp1048
sbsbsI105
g2
(g20
g21
(lp1049
F4.743964852817648
aF9.954547021911592
aF3.6515046269166502
aF0.00012227553959234864
aF0.049448468001261486
aF0.9132017840714752
atp1050
Rp1051
(dp1052
g26
I105
sg271
g272
(g276
S'\x00\xe0\x8d\x8cs\x10E?'
p1053
tp1054
Rp1055
sg27
g2
(g28
g4
Ntp1056
Rp1057
(dp1058
g32
g88
sg34
(F-7.826086956521738
F-3.3556320668805237
F-7.5654478007421515
F-8.184818481850105
F-6.385137756895302
F-12.593452707950624
F-18.24561403508772
F-4.562844882674885
F-0.6687954451160643
F-35.86235846265211
F-8.465312648400529
F-30.044186504581155
F-5.227021040974097
tp1059
sbsbsI106
g2
(g20
g21
(lp1060
F2.1246997752670764
aF7.055667702289325
aF3.627017761921942
aF0.0024495841886588467
aF0.04566852568300985
aF0.9861268150134795
atp1061
Rp1062
(dp1063
g26
I106
sg271
g272
(g276
S'\x00\x80\xa9j\x90\x07\x0c?'
p1064
tp1065
Rp1066
sg27
g2
(g28
g4
Ntp1067
Rp1068
(dp1069
g32
g106
sg34
(F-3.478260869565217
F-3.355754113141533
F-4.023680513746275
F-11.15511551155377
F-2.205824226333583
F-4.706390353754686
F-4.56140350877193
F-1.040926315969621
F-0.62487304226116
F-27.719912676502194
F-10.149612455634008
F-7.1836316004205925
F-10.240718074255383
tp1070
sbsbsI107
g2
(g20
g21
(lp1071
F9.382628503307657
aF4.7684947507935505
aF1.6766709053916016
aF3.7622701887594005e-05
aF0.049215309454443815
aF0.9755081356298242
atp1072
Rp1073
(dp1074
g26
I107
sg271
g272
(g276
S'\x00\xfb\x01\xf4Qr~?'
p1075
tp1076
Rp1077
sg27
g2
(g28
g4
Ntp1078
Rp1079
(dp1080
g32
g106
sg34
(F-18.26086956521739
F-3.3554708215070437
F-17.66411149825841
F-6.138613861387578
F-250.0
F-250.0
F-468.7719298245613
F-250.0
F-0.638291147627368
F-24.317468539906805
F-10.393298849573705
F-57.65495921211101
F-3.95348837208878
tp1081
sbsbsI108
g2
(g20
g21
(lp1082
F4.17636355650326
aF7.547895113939283
aF7.524092837625059
aF0.001434460577256251
aF0.049876086004833876
aF0.9839796132592858
atp1083
Rp1084
(dp1085
g26
I108
sg271
g272
(g276
S'\x907%\xae\xa9\x8d\xb4?'
p1086
tp1087
Rp1088
sg27
g2
(g28
g4
Ntp1089
Rp1090
(dp1091
g32
g88
sg34
(F-8.695652173913043
F-3.355459496754268
F-8.474396953026012
F-1.7161716171621186
F-4.386403634817293
F-9.232481585891941
F-4.140350877192983
F-25.356162905621662
F-0.6292418601943788
F-81.59754951752105
F-2.3344682893818236
F-32.99317032122771
F-7.10793082886077
tp1092
sbsbsI109
g2
(g20
g21
(lp1093
F1.5041730097605392
aF8.975247604580005
aF6.609899746949683
aF0.0023861226203986305
aF0.0499104720648511
aF0.9417088471802035
atp1094
Rp1095
(dp1096
g26
I109
sg271
g272
(g276
S'\xc0I@\x98\x06\xd1\xc8?'
p1097
tp1098
Rp1099
sg27
g2
(g28
g4
Ntp1100
Rp1101
(dp1102
g32
g106
sg34
(F-6.08695652173913
F-3.3556874870732947
F-6.024844720496949
F-8.118811881190023
F-9.362214153201311
F-6.359566377952704
F-7.859649122807017
F-2.0499051434061752
F-0.6472166175797875
F-62.45338624714282
F-4.701010084284795
F-6.4449655671646155
F-10.966408268733481
tp1103
sbsbsI110
g2
(g20
g21
(lp1104
F9.269729219748186
aF7.546290536993555
aF0.5520726259452005
aF4.839545564469636e-05
aF0.04346802103677822
aF0.9773408293185114
atp1105
Rp1106
(dp1107
g26
I110
sg271
g272
(g276
S'\x00\xfb\x01\xf4Qr~?'
p1108
tp1109
Rp1110
sg27
g2
(g28
g4
Ntp1111
Rp1112
(dp1113
g32
g106
sg34
(F-16.52173913043478
F-3.3554954343090397
F-14.213706197135874
F-9.30693069307149
F-170.37054607846403
F-9.40747466892271
F-20.0
F-1474.86588421772
F-0.6336296635706588
F-12.424939526477658
F-13.433320838281576
F-66.36276604917875
F-8.41085271317523
tp1114
sbsbsI111
g2
(g20
g21
(lp1115
F4.743964852817648
aF9.954547021911592
aF3.6515046269166502
aF0.00012227553959234864
aF0.049448468001261486
aF0.9132017840714752
atp1116
Rp1117
(dp1118
g26
I111
sg271
g272
(g276
S'\x84G\xf3[:\xea\xdc?'
p1119
tp1120
Rp1121
sg27
g2
(g28
g4
Ntp1122
Rp1123
(dp1124
g32
g88
sg34
g1059
sbsbsI112
g2
(g20
g21
(lp1125
F5.285098840438438
aF4.629517206133956
aF6.440565054780535
aF0.002468190171682158
aF0.04763820254993244
aF0.3732058454125504
atp1126
Rp1127
(dp1128
g26
I112
sg271
g272
(g276
S'\x00f\xa3\x87\x9bYs?'
p1129
tp1130
Rp1131
sg27
g2
(g28
g4
Ntp1132
Rp1133
(dp1134
g32
g88
sg34
g617
sbsbsI113
g2
(g20
g21
(lp1135
F4.743964852817648
aF9.718799743813268
aF5.852373851831485
aF0.006680473273225792
aF0.043403430263059435
aF0.9691758053422892
atp1136
Rp1137
(dp1138
g26
I113
sg271
g272
(g276
S'\x00\xb4\x1f\xcd\x05\xef\x9d?'
p1139
tp1140
Rp1141
sg27
g2
(g28
g4
Ntp1142
Rp1143
(dp1144
g32
g88
sg34
g1037
sbsbsI114
g2
(g20
g21
(lp1145
F1.3839934865359798
aF7.055667702289325
aF3.627017761921942
aF0.0024495841886588467
aF0.04678845892044135
aF0.9861268150134795
atp1146
Rp1147
(dp1148
g26
I114
sg271
g272
(g276
S'\x00<\xbe\xfa\x0b\xe7\x86?'
p1149
tp1150
Rp1151
sg27
g2
(g28
g4
Ntp1152
Rp1153
(dp1154
g32
g106
sg34
g871
sbsbsI115
g2
(g20
g21
(lp1155
F1.5041730097605392
aF8.975247604580005
aF6.609899746949683
aF0.0023861226203986305
aF0.0499104720648511
aF0.9417088471802035
atp1156
Rp1157
(dp1158
g26
I115
sg271
g272
(g276
S'\x00\xdc\x9e=F,s?'
p1159
tp1160
Rp1161
sg27
g2
(g28
g4
Ntp1162
Rp1163
(dp1164
g32
g106
sg34
g1103
sbsbsI116
g2
(g20
g21
(lp1165
F9.326869768165988
aF7.546290536993555
aF0.6609339134172085
aF4.839545564469636e-05
aF0.04922476961349366
aF0.974573323409414
atp1166
Rp1167
(dp1168
g26
I116
sg271
g272
(g276
S'4{\x05\xc7\x12@\xf0?'
p1169
tp1170
Rp1171
sg27
g2
(g28
g4
Ntp1172
Rp1173
(dp1174
g32
g106
sg34
g838
sbsbsI117
g2
(g20
g21
(lp1175
F5.285098840438438
aF4.629517206133956
aF6.440565054780535
aF0.002468190171682158
aF0.04763820254993244
aF0.3732058454125504
atp1176
Rp1177
(dp1178
g26
I117
sg271
g272
(g276
S'\x00f\xa3\x87\x9bYs?'
p1179
tp1180
Rp1181
sg27
g2
(g28
g4
Ntp1182
Rp1183
(dp1184
g32
g88
sg34
g617
sbsbsI118
g2
(g20
g21
(lp1185
F1.5041730097605392
aF8.975247604580005
aF6.609899746949683
aF0.0023861226203986305
aF0.0499104720648511
aF0.9417088471802035
atp1186
Rp1187
(dp1188
g26
I118
sg271
g272
(g276
S'\x00\xdc\x9e=F,s?'
p1189
tp1190
Rp1191
sg27
g2
(g28
g4
Ntp1192
Rp1193
(dp1194
g32
g106
sg34
g1103
sbsbsI119
g2
(g20
g21
(lp1195
F4.743964852817648
aF9.718799743813268
aF5.852373851831485
aF0.006680473273225792
aF0.043403430263059435
aF0.9691758053422892
atp1196
Rp1197
(dp1198
g26
I119
sg271
g272
(g276
S'\x00\xb4\x1f\xcd\x05\xef\x9d?'
p1199
tp1200
Rp1201
sg27
g2
(g28
g4
Ntp1202
Rp1203
(dp1204
g32
g88
sg34
g1037
sbsbsI120
g2
(g20
g21
(lp1205
F1.3839934865359798
aF7.055667702289325
aF3.627017761921942
aF0.0024495841886588467
aF0.04678845892044135
aF0.9861268150134795
atp1206
Rp1207
(dp1208
g26
I120
sg271
g272
(g276
S'\x00<\xbe\xfa\x0b\xe7\x86?'
p1209
tp1210
Rp1211
sg27
g2
(g28
g4
Ntp1212
Rp1213
(dp1214
g32
g106
sg34
g871
sbsbsI121
g2
(g20
g21
(lp1215
F4.755830460448557
aF4.81643861469127
aF3.2436695886067866
aF0.0001222593073011973
aF0.04989363964669506
aF0.47455116868023656
atp1216
Rp1217
(dp1218
g26
I121
sg271
g272
(g276
S'\x84G\xf3[:\xea\xdc?'
p1219
tp1220
Rp1221
sg27
g2
(g28
g4
Ntp1222
Rp1223
(dp1224
g32
g88
sg34
(F-8.695652173913043
F-3.3579743568718783
F-8.542280185107414
F-11.419141914194096
F-14.239504485370102
F-6.6451853864772685
F-41.473684210526315
F-29.237554439892477
F-0.899696671725836
F-29.46602573521348
F-10.176548951793949
F-17.723827888000415
F-2.1705426356588777
tp1225
sbsbsI122
g2
(g20
g21
(lp1226
F5.273233232807528
aF9.64984126396268
aF7.649295932472141
aF0.0035244515154038416
aF0.04709121439448845
aF0.9415181769353493
atp1227
Rp1228
(dp1229
g26
I122
sg271
g272
(g276
S'\x00f\xa3\x87\x9bYs?'
p1230
tp1231
Rp1232
sg27
g2
(g28
g4
Ntp1233
Rp1234
(dp1235
g32
g88
sg34
(F-7.826086956521738
F-3.3546300628340155
F-8.080962800875843
F-0.7260726072608963
F-3.44514540249399
F-8.717894822812303
F-16.56140350877193
F-21.367866792522708
F-0.6408519351070195
F-86.33069711557721
F-1.738096350220126
F-49.54243550531082
F-5.991140642302914
tp1236
sbsbsI123
g2
(g20
g21
(lp1237
F4.837755288366057
aF9.638825500999921
aF5.730158255499836
aF0.008525865528901501
aF0.043403430263059435
aF0.986476838748685
atp1238
Rp1239
(dp1240
g26
I123
sg271
g272
(g276
S'\x00\xb4\x1f\xcd\x05\xef\x9d?'
p1241
tp1242
Rp1243
sg27
g2
(g28
g4
Ntp1244
Rp1245
(dp1246
g32
g88
sg34
(F-8.695652173913043
F-3.3559504927503445
F-8.526592943654705
F-1.3201320132016297
F-3.035492961452066
F-20.573974390109615
F-19.36842105263158
F-14.761291132222098
F-0.6058158815226306
F-59.75450374532703
F-4.4069378545617575
F-51.26313029593007
F-6.559332140727677
tp1247
sbsbsI124
g2
(g20
g21
(lp1248
F1.291530098258374
aF7.128488346365854
aF4.436757832264828
aF0.0024495841886588467
aF0.049428033047634864
aF0.9746500128604392
atp1249
Rp1250
(dp1251
g26
I124
sg271
g272
(g276
S'\x00<\xbe\xfa\x0b\xe7\x86?'
p1252
tp1253
Rp1254
sg27
g2
(g28
g4
Ntp1255
Rp1256
(dp1257
g32
g106
sg34
(F-1.7391304347826084
F-3.355497092978663
F-1.723351306511836
F-11.683168316834422
F-7.935786575473581
F-2.742578671810008
F-2.807017543859649
F-10.577095364633909
F-0.6310734103888105
F-34.72338729911286
F-8.807900198081004
F-9.244597178361536
F-12.155038759689946
tp1258
sbsbsI125
g2
(g20
g21
(lp1259
F7.808450199004632
aF8.975247604580005
aF4.6754724151149265
aF0.001389457176747378
aF0.0499104720648511
aF0.8875191279822356
atp1260
Rp1261
(dp1262
g26
I125
sg271
g272
(g276
S'\x00\xdc\x9e=F,s?'
p1263
tp1264
Rp1265
sg27
g2
(g28
g4
Ntp1266
Rp1267
(dp1268
g32
g106
sg34
(F-10.43478260869565
F-3.3559572130970343
F-9.937779718371816
F-2.5082508250830964
F-7.604580645065992
F-20.195744998634193
F-26.596491228070175
F-7.405237450124127
F-0.6716405949733417
F-55.14649188502908
F-4.820897249288101
F-59.15968049986912
F-4.115574348131604
tp1269
sbsbsI126
g2
(g20
g21
(lp1270
F0.8060176064078783
aF7.546290536993555
aF0.6609339134172085
aF4.839545564469636e-05
aF0.04968826797137234
aF0.9774103643084332
atp1271
Rp1272
(dp1273
g26
I126
sg271
g272
(g276
S'4{\x05\xc7\x12@\xf0?'
p1274
tp1275
Rp1276
sg27
g2
(g28
g4
Ntp1277
Rp1278
(dp1279
g32
g106
sg34
(F-11.304347826086955
F-3.3556801044546143
F-10.88452088452125
F-17.953795379542164
F-4.243882254903445
F-10.343503283842882
F-7.9298245614035086
F-9.149854151606823
F-0.6376905609060577
F-7.783857281842449
F-17.13214800845759
F-22.504516025570414
F-12.868217054263472
tp1280
sbsbsI127
g2
(g20
g21
(lp1281
F5.963404184045747
aF4.629517206133956
aF7.592428348171318
aF0.002806423331365705
aF0.04763820254993244
aF0.32893094567809095
atp1282
Rp1283
(dp1284
g26
I127
sg271
g272
(g276
S'\x00f\xa3\x87\x9bYs?'
p1285
tp1286
Rp1287
sg27
g2
(g28
g4
Ntp1288
Rp1289
(dp1290
g32
g88
sg34
(F-8.695652173913043
F-3.3578112508931386
F-8.94571283612358
F-6.204620462047659
F-16.16653326980152
F-35.90785635744503
F-10.596491228070175
F-25.40695517699367
F-0.9695816924646382
F-85.41067787513097
F-2.1248429141876954
F-41.23285122858294
F-3.0411449016101852
tp1291
sbsbsI128
g2
(g20
g21
(lp1292
F1.329519763905762
aF9.482493711059114
aF7.038841696806354
aF0.0023861226203986305
aF0.0499104720648511
aF0.9814209080199949
atp1293
Rp1294
(dp1295
g26
I128
sg271
g272
(g276
S'\x00\xdc\x9e=F,s?'
p1296
tp1297
Rp1298
sg27
g2
(g28
g4
Ntp1299
Rp1300
(dp1301
g32
g106
sg34
(F-7.826086956521738
F-3.3554627415010834
F-7.64251108133198
F-7.194719471948882
F-9.475862684009297
F-8.127676893881901
F-7.43859649122807
F-1.2049727412270987
F-0.6287298332500842
F-68.14242809030367
F-4.100162586630474
F-6.2721482750883135
F-11.75387596899183
tp1302
sbsbsI129
g2
(g20
g21
(lp1303
F5.035474559766081
aF6.744217455538756
aF3.687302521794446
aF0.006639532314359926
aF0.04766066976402274
aF0.9886508001396197
atp1304
Rp1305
(dp1306
g26
I129
sg271
g272
(g276
S'\x00\xb4\x1f\xcd\x05\xef\x9d?'
p1307
tp1308
Rp1309
sg27
g2
(g28
g4
Ntp1310
Rp1311
(dp1312
g32
g88
sg34
(F-13.043478260869565
F-3.3552683017238825
F-11.921918303411196
F-6.798679867988393
F-90.50507109554378
F-8.33355861586649
F-27.92982456140351
F-22.274727327436644
F-0.6143330034312882
F-35.46644501032984
F-8.202974933398004
F-38.97705936068865
F-5.736434108525387
tp1313
sbsbsI130
g2
(g20
g21
(lp1314
F1.3818596326933938
aF9.352779451415518
aF5.79208910520274
aF0.002490542178203414
aF0.046846258537053174
aF0.980741770459539
atp1315
Rp1316
(dp1317
g26
I130
sg271
g272
(g276
S'\x00<\xbe\xfa\x0b\xe7\x86?'
p1318
tp1319
Rp1320
sg27
g2
(g28
g4
Ntp1321
Rp1322
(dp1323
g32
g106
sg34
(F-6.08695652173913
F-3.3557174549007907
F-5.478868957130352
F-8.580858085810593
F-9.467589336402407
F-5.762403782323504
F-7.157894736842105
F-0.6552987217910733
F-0.6270931801337586
F-51.30728773905064
F-6.033827557818402
F-5.919029580224124
F-11.32299741602053
tp1324
sbsbsI131
g2
(g20
g21
(lp1325
F9.326869768165988
aF7.546290536993555
aF0.6609339134172085
aF4.839545564469636e-05
aF0.04922476961349366
aF0.974573323409414
atp1326
Rp1327
(dp1328
g26
I131
sg271
g272
(g276
S'\x80\xdc\xd6Dd\xd2\x82?'
p1329
tp1330
Rp1331
sg27
g2
(g28
g4
Ntp1332
Rp1333
(dp1334
g32
g106
sg34
g838
sbsbsI132
g2
(g20
g21
(lp1335
F1.3818596326933938
aF9.352779451415518
aF5.79208910520274
aF0.002490542178203414
aF0.046846258537053174
aF0.980741770459539
atp1336
Rp1337
(dp1338
g26
I132
sg271
g272
(g276
S'\xd8\xe9\xfa?\xc2\xe8\xc4?'
p1339
tp1340
Rp1341
sg27
g2
(g28
g4
Ntp1342
Rp1343
(dp1344
g32
g106
sg34
g1324
sbsbsI133
g2
(g20
g21
(lp1345
F4.755830460448557
aF4.81643861469127
aF3.2436695886067866
aF0.0001222593073011973
aF0.04989363964669506
aF0.47455116868023656
atp1346
Rp1347
(dp1348
g26
I133
sg271
g272
(g276
S'\x00\x16\x8d\r\xdf\xf9s?'
p1349
tp1350
Rp1351
sg27
g2
(g28
g4
Ntp1352
Rp1353
(dp1354
g32
g88
sg34
g1225
sbsbsI134
g2
(g20
g21
(lp1355
F4.743964852817648
aF9.954547021911592
aF3.6515046269166502
aF0.00012227553959234864
aF0.049448468001261486
aF0.9132017840714752
atp1356
Rp1357
(dp1358
g26
I134
sg271
g272
(g276
S'\x00H\xfa\xbc\xfd\x02_?'
p1359
tp1360
Rp1361
sg27
g2
(g28
g4
Ntp1362
Rp1363
(dp1364
g32
g88
sg34
g1059
sbsbsI135
g2
(g20
g21
(lp1365
F9.326869768165988
aF7.546290536993555
aF0.6609339134172085
aF4.839545564469636e-05
aF0.04922476961349366
aF0.974573323409414
atp1366
Rp1367
(dp1368
g26
I135
sg271
g272
(g276
S'\x80\xdc\xd6Dd\xd2\x82?'
p1369
tp1370
Rp1371
sg27
g2
(g28
g4
Ntp1372
Rp1373
(dp1374
g32
g106
sg34
g838
sbsbsI136
g2
(g20
g21
(lp1375
F4.743964852817648
aF9.954547021911592
aF3.6515046269166502
aF0.00012227553959234864
aF0.049448468001261486
aF0.9132017840714752
atp1376
Rp1377
(dp1378
g26
I136
sg271
g272
(g276
S'\x00H\xfa\xbc\xfd\x02_?'
p1379
tp1380
Rp1381
sg27
g2
(g28
g4
Ntp1382
Rp1383
(dp1384
g32
g88
sg34
g1059
sbsbsI137
g2
(g20
g21
(lp1385
F5.035474559766081
aF6.744217455538756
aF3.687302521794446
aF0.006639532314359926
aF0.04766066976402274
aF0.9886508001396197
atp1386
Rp1387
(dp1388
g26
I137
sg271
g272
(g276
S' \xb8r\xeb\x02\x82\xab?'
p1389
tp1390
Rp1391
sg27
g2
(g28
g4
Ntp1392
Rp1393
(dp1394
g32
g88
sg34
g1313
sbsbsI138
g2
(g20
g21
(lp1395
F4.743964852817648
aF9.954547021911592
aF3.6515046269166502
aF0.00012227553959234864
aF0.049448468001261486
aF0.9132017840714752
atp1396
Rp1397
(dp1398
g26
I138
sg271
g272
(g276
S'\x00H\xfa\xbc\xfd\x02_?'
p1399
tp1400
Rp1401
sg27
g2
(g28
g4
Ntp1402
Rp1403
(dp1404
g32
g88
sg34
g1059
sbsbsI139
g2
(g20
g21
(lp1405
F7.808450199004632
aF8.975247604580005
aF4.6754724151149265
aF0.001389457176747378
aF0.0499104720648511
aF0.8875191279822356
atp1406
Rp1407
(dp1408
g26
I139
sg271
g272
(g276
S'\xe0)\x12\x00$\x97\xa6?'
p1409
tp1410
Rp1411
sg27
g2
(g28
g4
Ntp1412
Rp1413
(dp1414
g32
g106
sg34
g1269
sbsbsI140
g2
(g20
g21
(lp1415
F5.963404184045747
aF4.629517206133956
aF7.592428348171318
aF0.002806423331365705
aF0.04763820254993244
aF0.32893094567809095
atp1416
Rp1417
(dp1418
g26
I140
sg271
g272
(g276
S'\x80[\xd4\xa4\x9d\x9e\x8a?'
p1419
tp1420
Rp1421
sg27
g2
(g28
g4
Ntp1422
Rp1423
(dp1424
g32
g88
sg34
g1291
sbsbsI141
g2
(g20
g21
(lp1425
F9.455675545530381
aF8.218687718379242
aF1.1455012268562155
aF0.00045258781609061876
aF0.04922476961349366
aF0.9763155149683858
atp1426
Rp1427
(dp1428
g26
I141
sg271
g272
(g276
S'\x80\xdc\xd6Dd\xd2\x82?'
p1429
tp1430
Rp1431
sg27
g2
(g28
g4
Ntp1432
Rp1433
(dp1434
g32
g106
sg34
(F-13.043478260869565
F-3.355537944111984
F-13.222121120210137
F-7.326732673269045
F-114.53987541122248
F-9.91714234825526
F-23.57894736842105
F-19.228513895342743
F-0.6368073239356532
F-19.131871774018755
F-11.626984902352609
F-57.21861650196846
F-3.953488372092834
tp1435
sbsbsI142
g2
(g20
g21
(lp1436
F1.2263489397497516
aF9.517539996624965
aF6.007950977039517
aF0.0034673793965259297
aF0.047930021409746844
aF0.9819877114838236
atp1437
Rp1438
(dp1439
g26
I142
sg271
g272
(g276
S'\xd8\xe9\xfa?\xc2\xe8\xc4?'
p1440
tp1441
Rp1442
sg27
g2
(g28
g4
Ntp1443
Rp1444
(dp1445
g32
g106
sg34
(F-8.695652173913043
F-3.355248221369145
F-8.023915687069891
F-8.646864686470675
F-9.003668886162236
F-8.43424001530043
F-7.7894736842105265
F-2.0554316571901983
F-0.6248716954393264
F-54.16548940241294
F-5.730216948809176
F-7.080684569461251
F-12.003758515386139
tp1446
sbsbsI143
g2
(g20
g21
(lp1447
F4.755830460448557
aF9.86818138571548
aF4.052884846628931
aF0.00012225921249508202
aF0.049959795272974714
aF0.9610958289112715
atp1448
Rp1449
(dp1450
g26
I143
sg271
g272
(g276
S'\x00\x16\x8d\r\xdf\xf9s?'
p1451
tp1452
Rp1453
sg27
g2
(g28
g4
Ntp1454
Rp1455
(dp1456
g32
g88
sg34
(F-7.826086956521738
F-3.355572329421006
F-7.390369733448377
F-7.260726072608963
F-6.006222424311741
F-18.802483250271774
F-16.70175438596491
F-2.2727000518153577
F-0.6457161502236823
F-40.89357454367935
F-7.541789847712895
F-31.281505713349823
F-5.736434108526835
tp1457
sbsbsI144
g2
(g20
g21
(lp1458
F5.633831318637296
aF5.435779079381886
aF3.6515046269166502
aF0.00012227563439846391
aF0.04980929429485561
aF0.42073774714696915
atp1459
Rp1460
(dp1461
g26
I144
sg271
g272
(g276
S'\x00H\xfa\xbc\xfd\x02_?'
p1462
tp1463
Rp1464
sg27
g2
(g28
g4
Ntp1465
Rp1466
(dp1467
g32
g88
sg34
(F-8.695652173913043
F-3.3582588648343017
F-8.887075385086032
F-10.165016501652548
F-18.240783061179613
F-13.191081690959178
F-38.175438596491226
F-22.63745742523558
F-0.9305191894143345
F-36.064155096555034
F-8.688471152995994
F-26.15709086001811
F-1.4549791293969805
tp1468
sbsbsI145
g2
(g20
g21
(lp1469
F4.713235095362742
aF8.78237355394317
aF3.6613104412561155
aF4.839545564469636e-05
aF0.0499094043518708
aF0.9436619791991878
atp1470
Rp1471
(dp1472
g26
I145
sg271
g272
(g276
S'\x80\xdc\xd6Dd\xd2\x82?'
p1473
tp1474
Rp1475
sg27
g2
(g28
g4
Ntp1476
Rp1477
(dp1478
g32
g106
sg34
(F-7.826086956521738
F-3.3555993900484786
F-8.163841807910094
F-8.052805280529942
F-7.675499986692509
F-11.003928125842107
F-20.0
F-3.6850790377312497
F-0.6542323644593554
F-35.17705250029424
F-8.472816309772854
F-29.080558337068197
F-5.736434108527993
tp1479
sbsbsI146
g2
(g20
g21
(lp1480
F8.199807763688728
aF9.978217588573864
aF0.6556027288296606
aF0.00012227553959234864
aF0.04943554772213108
aF0.9721283272456823
atp1481
Rp1482
(dp1483
g26
I146
sg271
g272
(g276
S'\x00H\xfa\xbc\xfd\x02_?'
p1484
tp1485
Rp1486
sg27
g2
(g28
g4
Ntp1487
Rp1488
(dp1489
g32
g88
sg34
(F-7.826086956521738
F-3.355914931254471
F-7.421464565241067
F-10.363036303632793
F-0.21934815558366094
F-8.253263822875061
F-10.035087719298245
F-4.727352783013029
F-0.639717313290357
F-11.488390210018892
F-13.846006295585306
F-47.58589608619741
F-3.4440753045403865
tp1490
sbsbsI147
g2
(g20
g21
(lp1491
F4.742049881746332
aF6.744217455538756
aF3.687302521794446
aF0.006639532314359926
aF0.04665956135651406
aF0.9952709261047465
atp1492
Rp1493
(dp1494
g26
I147
sg271
g272
(g276
S' \xb8r\xeb\x02\x82\xab?'
p1495
tp1496
Rp1497
sg27
g2
(g28
g4
Ntp1498
Rp1499
(dp1500
g32
g88
sg34
(F-13.913043478260867
F-3.355237767549835
F-12.498721227623019
F-7.062706270628719
F-121.40507183594633
F-9.833086789139239
F-27.157894736842106
F-25.706887806574983
F-0.6104553867595941
F-35.35876353644928
F-8.371720336223037
F-37.41658705653489
F-5.7364341085256765
tp1501
sbsbsI148
g2
(g20
g21
(lp1502
F5.037389530837397
aF8.064778091550888
aF4.515857646719284
aF0.00012227553959234864
aF0.04775696456989414
aF0.9151488526360634
atp1503
Rp1504
(dp1505
g26
I148
sg271
g272
(g276
S'\x00H\xfa\xbc\xfd\x02_?'
p1506
tp1507
Rp1508
sg27
g2
(g28
g4
Ntp1509
Rp1510
(dp1511
g32
g88
sg34
(F-8.695652173913043
F-3.355588705002773
F-8.923233350279416
F-6.204620462047659
F-8.255403474162941
F-18.80125150804287
F-17.403508771929825
F-0.8151972475331634
F-0.6658468570213825
F-45.72723456531148
F-6.562092410232604
F-38.17423789164721
F-5.462134764460243
tp1512
sbsbsI149
g2
(g20
g21
(lp1513
F7.752966232543374
aF8.829722334684588
aF6.59157993508741
aF0.0013992209890243228
aF0.04991220213483434
aF0.8875191279822356
atp1514
Rp1515
(dp1516
g26
I149
sg271
g272
(g276
S'\xe0)\x12\x00$\x97\xa6?'
p1517
tp1518
Rp1519
sg27
g2
(g28
g4
Ntp1520
Rp1521
(dp1522
g32
g106
sg34
(F-9.565217391304346
F-3.356163393587908
F-9.228791773779225
F-0.8580858085810593
F-3.8949632736032047
F-28.351594647615286
F-22.526315789473685
F-10.86879381327339
F-0.674839991343863
F-79.16505896732616
F-2.090974459478486
F-62.610611290792825
F-5.439276485786966
tp1523
sbsbsI150
g2
(g20
g21
(lp1524
F7.164597577233376
aF4.629517206133956
aF7.592428348171318
aF0.0042051998556597294
aF0.049083347578961246
aF0.22637013826055624
atp1525
Rp1526
(dp1527
g26
I150
sg271
g272
(g276
S'\x80[\xd4\xa4\x9d\x9e\x8a?'
p1528
tp1529
Rp1530
sg27
g2
(g28
g4
Ntp1531
Rp1532
(dp1533
g32
g88
sg34
(F-9.565217391304346
F-3.3583554303555214
F-9.906930909887713
F-5.80858085808717
F-18.25211973203352
F-47.865090083722365
F-49.75438596491228
F-22.863991183348084
F-1.029472410116672
F-85.57754605562066
F-1.7394515743207009
F-45.90155885330902
F-7.932816537467315
tp1534
sbsbssbsS'parents'
p1535
(lp1536
g2
(g20
g21
(lp1537
F5.963404184045747
aF4.629517206133956
aF7.592428348171318
aF0.002806423331365705
aF0.04763820254993244
aF0.32893094567809095
atp1538
Rp1539
(dp1540
g26
I140
sg271
g272
(g276
S'\x00\xec\xd3\xea\xc0=`?'
p1541
tp1542
Rp1543
sg27
g2
(g28
g4
Ntp1544
Rp1545
(dp1546
g32
g88
sg34
g1291
sbsbag2
(g20
g21
(lp1547
F9.455675545530381
aF8.218687718379242
aF1.1455012268562155
aF0.00045258781609061876
aF0.04922476961349366
aF0.9763155149683858
atp1548
Rp1549
(dp1550
g26
I141
sg271
g272
(g276
S'\xe0\xd0\x1d\x11\xf0\xd2\xb3?'
p1551
tp1552
Rp1553
sg27
g2
(g28
g4
Ntp1554
Rp1555
(dp1556
g32
g106
sg34
g1435
sbsbag1549
ag2
(g20
g21
(lp1557
F5.037389530837397
aF8.064778091550888
aF4.515857646719284
aF0.00012227553959234864
aF0.04775696456989414
aF0.9151488526360634
atp1558
Rp1559
(dp1560
g26
I148
sg271
g272
(g276
S'\xb86\xdb\xdf\xd9P\xce?'
p1561
tp1562
Rp1563
sg27
g2
(g28
g4
Ntp1564
Rp1565
(dp1566
g32
g88
sg34
g1512
sbsbag2
(g20
g21
(lp1567
F5.633831318637296
aF5.435779079381886
aF3.6515046269166502
aF0.00012227563439846391
aF0.04980929429485561
aF0.42073774714696915
atp1568
Rp1569
(dp1570
g26
I144
sg271
g272
(g276
S' \xf5n\xba\xff\xd8\xb6?'
p1571
tp1572
Rp1573
sg27
g2
(g28
g4
Ntp1574
Rp1575
(dp1576
g32
g88
sg34
g1468
sbsbag2
(g20
g21
(lp1577
F1.3818596326933938
aF9.352779451415518
aF5.79208910520274
aF0.002490542178203414
aF0.046846258537053174
aF0.980741770459539
atp1578
Rp1579
(dp1580
g26
I132
sg271
g272
(g276
S'\x00|M#u\xdef?'
p1581
tp1582
Rp1583
sg27
g2
(g28
g4
Ntp1584
Rp1585
(dp1586
g32
g106
sg34
g1324
sbsbag2
(g20
g21
(lp1587
F1.2263489397497516
aF9.517539996624965
aF6.007950977039517
aF0.0034673793965259297
aF0.047930021409746844
aF0.9819877114838236
atp1588
Rp1589
(dp1590
g26
I142
sg271
g272
(g276
S' *\x87\xf0\xfa\x06\xaa?'
p1591
tp1592
Rp1593
sg27
g2
(g28
g4
Ntp1594
Rp1595
(dp1596
g32
g106
sg34
g1446
sbsbag1569
ag1539
ag2
(g20
g21
(lp1597
F4.755830460448557
aF4.81643861469127
aF3.2436695886067866
aF0.0001222593073011973
aF0.04989363964669506
aF0.47455116868023656
atp1598
Rp1599
(dp1600
g26
I133
sg271
g272
(g276
S'\xc0_?\xa3\x95\x19\xad?'
p1601
tp1602
Rp1603
sg27
g2
(g28
g4
Ntp1604
Rp1605
(dp1606
g32
g88
sg34
g1225
sbsbasS'generation'
p1607
I8
sS'logbook'
p1608
g2
(cdeap.tools.support
Logbook
p1609
g21
(lp1610
(dp1611
S'std'
p1612
g272
(g276
S'\x12\xf8\xeah \xaf\x83@'
p1613
tp1614
Rp1615
sS'nevals'
p1616
I10
sS'min'
p1617
g272
(g276
S'\xd6E\xe0\x91\xdf\xc7Z@'
p1618
tp1619
Rp1620
sS'max'
p1621
g272
(g276
S'B\xe4T\x08\xceB\xa0@'
p1622
tp1623
Rp1624
sS'avg'
p1625
g272
(g276
S')\xbf\xd9\x81\x9e\xdc\x82@'
p1626
tp1627
Rp1628
sS'gen'
p1629
I1
sa(dp1630
g1612
g272
(g276
S'\x8ba\x9c\x94\x7f\xac\x83@'
p1631
tp1632
Rp1633
sg1616
I10
sg1617
g272
(g276
S'\xd6E\xe0\x91\xdf\xc7Z@'
p1634
tp1635
Rp1636
sg1621
g272
(g276
S'B\xe4T\x08\xceB\xa0@'
p1637
tp1638
Rp1639
sg1625
g272
(g276
S'\x02\x13\xc4\xd45\x10\x82@'
p1640
tp1641
Rp1642
sg1629
I2
sa(dp1643
g1612
g272
(g276
S'L\x1fj\x98\x0b\xed\x85@'
p1644
tp1645
Rp1646
sg1616
I10
sg1617
g272
(g276
S'\xd6E\xe0\x91\xdf\xc7Z@'
p1647
tp1648
Rp1649
sg1621
g272
(g276
S'B\xe4T\x08\xceB\xa0@'
p1650
tp1651
Rp1652
sg1625
g272
(g276
S'\xb6/B\xd1/\xbf\x81@'
p1653
tp1654
Rp1655
sg1629
I3
sa(dp1656
g1612
g272
(g276
S'\xa9\xd4\xe3\xf9\x05\xc6y@'
p1657
tp1658
Rp1659
sg1616
I10
sg1617
g272
(g276
S'\xf4D\x12\x03\xcc(_@'
p1660
tp1661
Rp1662
sg1621
g272
(g276
S'\xe1\xd6\xa2\xb1\x8b\x19\x97@'
p1663
tp1664
Rp1665
sg1625
g272
(g276
S'\xc6\x05F\xca4\xf0|@'
p1666
tp1667
Rp1668
sg1629
I4
sa(dp1669
g1612
g272
(g276
S'\xff\xf5\x84W\xb3If@'
p1670
tp1671
Rp1672
sg1616
I10
sg1617
g272
(g276
S'0+\x9f\xed\\\xa0S@'
p1673
tp1674
Rp1675
sg1621
g272
(g276
S'\x87\x835\xc8\xc1x\x87@'
p1676
tp1677
Rp1678
sg1625
g272
(g276
S'\x86*\xb2\xa5\x07/q@'
p1679
tp1680
Rp1681
sg1629
I5
sa(dp1682
g1612
g272
(g276
S'\xa9o^\xf4\xc5\x1c|@'
p1683
tp1684
Rp1685
sg1616
I10
sg1617
g272
(g276
S'0+\x9f\xed\\\xa0S@'
p1686
tp1687
Rp1688
sg1621
g272
(g276
S'\xb9j\xf9\xa8:m\x9c@'
p1689
tp1690
Rp1691
sg1625
g272
(g276
S'N\xebId\xef\x87v@'
p1692
tp1693
Rp1694
sg1629
I6
sa(dp1695
g1612
g272
(g276
S'\xddL\\K;>`@'
p1696
tp1697
Rp1698
sg1616
I10
sg1617
g272
(g276
S'0+\x9f\xed\\\xa0S@'
p1699
tp1700
Rp1701
sg1621
g272
(g276
S'\xd3\x15\xc1 \x01@\x86@'
p1702
tp1703
Rp1704
sg1625
g272
(g276
S'\xfe\x81\xc6\x96\xc5&i@'
p1705
tp1706
Rp1707
sg1629
I7
sa(dp1708
g1612
g272
(g276
S'\xee\x03\xc68\x12\xa6d@'
p1709
tp1710
Rp1711
sg1616
I10
sg1617
g272
(g276
S'\x1a\x01\xbag_p^@'
p1712
tp1713
Rp1714
sg1621
g272
(g276
S'\xd3\x15\xc1 \x01@\x86@'
p1715
tp1716
Rp1717
sg1625
g272
(g276
S'\xaa\x96\xfd\xe2\x7f=o@'
p1718
tp1719
Rp1720
sg1629
I8
satp1721
Rp1722
(dp1723
S'log_header'
p1724
I01
sS'header'
p1725
(lp1726
g1629
ag1616
ag1625
ag1612
ag1617
ag1621
asS'columns_len'
p1727
(lp1728
I3
aI6
aI7
aI7
aI7
aI7
asS'buffindex'
p1729
I8
sS'chapters'
p1730
ccollections
defaultdict
p1731
(g1609
tp1732
Rp1733
sbsS'rndstate'
p1734
(I3
(L2212473412L
L2044973860L
L3706432164L
L3453105686L
L2237885269L
L3230396462L
L4179997673L
L2408656167L
L1486653942L
L2032464320L
L1176460216L
L182654469L
L2862397008L
L273818311L
L3006107126L
L830169962L
L1154452785L
L862200973L
L2939194304L
L2035348412L
L3142609023L
L2621432071L
L965019391L
L2775681999L
L2574937441L
L902049492L
L3265036360L
L1252371069L
L53562543L
L4219171952L
L3179037873L
L2373940709L
L3852476363L
L3384060315L
L1345450867L
L570436724L
L2860701508L
L3257650188L
L3722995930L
L2351336123L
L2944840523L
L1227299773L
L2969867680L
L2103868330L
L3558656950L
L2142337774L
L3257784606L
L2933875744L
L555160189L
L3013876642L
L2614681531L
L2704124991L
L2219647146L
L2555968261L
L3124675367L
L2488180093L
L3956746013L
L1994815654L
L3520312064L
L2490099980L
L4265719477L
L2849775362L
L2559802695L
L3393012938L
L3760532999L
L841190952L
L3082797418L
L1550859250L
L3794343138L
L4156658871L
L367697409L
L1734004447L
L1287773307L
L2308449659L
L2920718189L
L3608487355L
L1551213180L
L1156934881L
L1293596908L
L2447619644L
L2377752818L
L1853337903L
L276952059L
L3235591718L
L1747656068L
L3352029649L
L1441757627L
L3767892450L
L1299805578L
L2684171034L
L107152003L
L1064742698L
L1005818932L
L1777591546L
L2516889655L
L2060296366L
L2601649674L
L1976151278L
L2493324531L
L1691078567L
L4016004268L
L550302403L
L3780657132L
L3297483093L
L3633741585L
L3766820756L
L1700263608L
L3499273320L
L2136244560L
L1213853690L
L1512174245L
L508429311L
L1180456283L
L299161588L
L81677587L
L1769273103L
L678249309L
L3329437427L
L2113507045L
L525454383L
L955541632L
L475433723L
L3159658970L
L1632407399L
L4135577741L
L3227703369L
L2703591458L
L2361305145L
L961625478L
L2702728428L
L2715360192L
L627652112L
L3428515586L
L3862708628L
L2547160925L
L2793132938L
L4197430097L
L3478446105L
L144921310L
L2378300716L
L235293834L
L1559251017L
L4264457231L
L2662136261L
L3940789177L
L3606690685L
L2620011762L
L3934811445L
L4099945271L
L3085749454L
L2151302612L
L1168405560L
L3959829152L
L2548554539L
L854928069L
L1580343790L
L1324711677L
L1195672302L
L2210138059L
L3865493416L
L1666788997L
L2215637746L
L2321199594L
L2617544471L
L780841626L
L19680687L
L2051671234L
L1461840362L
L2136401976L
L263032788L
L3929898026L
L2283426852L
L2979295785L
L1911896895L
L3773748520L
L3009545187L
L1323544457L
L670386317L
L3576906387L
L3825847419L
L860819192L
L329939271L
L2085261977L
L3501408485L
L3082985398L
L1244705136L
L302288349L
L2718129658L
L918423267L
L1400529990L
L4252549050L
L162481222L
L1033620289L
L2060033133L
L1672795968L
L711842642L
L1559662518L
L1498167895L
L975676053L
L4137312988L
L2989711339L
L2640967147L
L3433940057L
L3740371925L
L4095326405L
L2262008944L
L3676590535L
L3339981295L
L3329684853L
L2353338998L
L2142708051L
L19308743L
L958037342L
L3765824405L
L2930578334L
L1570814871L
L2658922381L
L1806156645L
L2483673600L
L4061442311L
L3057749121L
L3443530874L
L266311978L
L3883977237L
L3924024136L
L4210501128L
L2218807145L
L4177661959L
L2162300400L
L3054362084L
L4004106178L
L2351629806L
L2095434618L
L4219404214L
L3626725130L
L718287194L
L1479530487L
L1727898792L
L962277223L
L3232944579L
L2219929822L
L628804745L
L2444239405L
L1486408481L
L1578580337L
L2578636738L
L404433132L
L1698202881L
L117448381L
L4225558547L
L2349869539L
L2130592201L
L1577292815L
L3964738947L
L3754851056L
L2700694736L
L2044874264L
L88459078L
L2315853658L
L2498204199L
L2920521183L
L265132448L
L2452010481L
L113487014L
L3910070462L
L1671690257L
L3700030873L
L507451372L
L767498659L
L106845069L
L2138935035L
L1944511876L
L1670993205L
L4101885235L
L4092612279L
L3807343786L
L4115930639L
L293228926L
L3557216036L
L1960043322L
L535086404L
L2275334957L
L160918384L
L2678297587L
L2504288938L
L1978833128L
L289090872L
L3228659274L
L1452300457L
L1442834933L
L4044704167L
L2273167378L
L1352904246L
L2093133013L
L1882000599L
L2090315540L
L2223521851L
L3445715518L
L175582287L
L1406767021L
L3106167126L
L2800925097L
L3424018708L
L813809710L
L2628529748L
L16493617L
L4156741938L
L3844502034L
L674805287L
L3215826461L
L1396749527L
L143013550L
L1194020064L
L577108776L
L4234885083L
L1357676420L
L3504531665L
L872682508L
L2154245646L
L2554998922L
L3806926397L
L2486101150L
L3610638087L
L4083139436L
L2750659466L
L1497064166L
L96893458L
L258160724L
L390579695L
L1379953751L
L709539990L
L3453027614L
L729328596L
L1083222334L
L53391473L
L1935597847L
L2499667192L
L2350607685L
L1623373847L
L1869724520L
L3946857581L
L614563755L
L3238670688L
L2716134715L
L1228969057L
L3399975702L
L3636187792L
L3624315843L
L2638753938L
L3404033782L
L1189730623L
L1037011824L
L2189933972L
L3113826259L
L4198967891L
L887372759L
L2456086919L
L117492803L
L2433724652L
L3143262970L
L67762442L
L824543310L
L4146643067L
L3689615796L
L3169809263L
L3705464440L
L3933109197L
L1007558019L
L962977915L
L1725455251L
L2726844042L
L1081173831L
L1366048256L
L3633541621L
L2273074973L
L2569613663L
L4122004437L
L448657367L
L4181915954L
L3670901155L
L1997643870L
L414773190L
L1492629875L
L4186734915L
L603334342L
L1017303385L
L96367362L
L3213503122L
L2063138909L
L1291025136L
L3462657078L
L757309067L
L1961882503L
L2485267026L
L2395036268L
L1908767691L
L459706003L
L2919910669L
L3030286200L
L2117601034L
L901004039L
L3518027157L
L3506678790L
L1065722537L
L1613297923L
L1209531443L
L1285694473L
L1539153782L
L680229125L
L2171107001L
L3775753227L
L3138637514L
L632891574L
L1150782981L
L1024077185L
L559058681L
L3736144848L
L747878597L
L1167743543L
L2243448725L
L1581523512L
L840045395L
L1879462995L
L2253527611L
L979658977L
L3200696199L
L1739624965L
L934077455L
L316183657L
L2343820805L
L146939246L
L1374186013L
L3089864188L
L2333765458L
L301553609L
L3847480982L
L2236933863L
L3526643493L
L3570266626L
L2373916100L
L1827232200L
L1640226276L
L501431766L
L466052847L
L397529820L
L107479007L
L775922334L
L2145580904L
L3650056253L
L1306895050L
L968300351L
L1272712146L
L99506718L
L3738864823L
L195683802L
L1527393203L
L3633124500L
L247551043L
L1735397121L
L3665839365L
L705103782L
L390261455L
L2225977040L
L3422808751L
L3722719030L
L369662743L
L3180353640L
L4126140038L
L148755753L
L1619747336L
L827768552L
L2536784671L
L2316373413L
L845340615L
L3491028345L
L3669319077L
L291113821L
L4085828305L
L1568698849L
L839067883L
L4054508457L
L929050583L
L3497143283L
L1304288248L
L3792774695L
L608856316L
L3345484724L
L2012687136L
L1640704672L
L1212720393L
L1968070765L
L1526637819L
L4231589734L
L804687625L
L1883434886L
L1481228057L
L3135826400L
L4292506910L
L205464082L
L1665264779L
L561006027L
L2628507379L
L2224379655L
L1518218857L
L4102596087L
L3559835153L
L1291242115L
L57763472L
L137005920L
L1357483566L
L2896210416L
L1146977344L
L3096622828L
L1926764350L
L1470928126L
L292536409L
L2623353731L
L2090864594L
L3689386939L
L3183337668L
L699708302L
L3096692069L
L3908049887L
L701217269L
L599404702L
L1162417791L
L3664153160L
L3008620062L
L3596337252L
L3768011367L
L3878503673L
L1729052277L
L2642045806L
L1526248868L
L2773533300L
L3515212475L
L2720540194L
L2255154365L
L3057178115L
L231068623L
L4056905466L
L2607157550L
L4066475346L
L3609872351L
L242755958L
L4247554010L
L2673856087L
L2393016345L
L2222034003L
L1531025586L
L3789065279L
L915363529L
L3741974981L
L1632937790L
L2783242733L
L852696295L
L2290677443L
L1241412240L
L1286559948L
L4038351265L
L3593567359L
L2445999250L
L2925992456L
L3541977155L
L2259254047L
L3006116678L
L2743053424L
L1122738405L
L1151674167L
L2013860998L
L3484623623L
L1758489310L
L3756455016L
L4222671933L
L1615653269L
L114750207L
L944020157L
L1794588511L
L2977453914L
L2152016999L
L3264045495L
L2138810863L
L275475334L
L1886948309L
L664259877L
L2860150886L
L1225729217L
L828676770L
L3774332453L
L4006553728L
L318804223L
L276589981L
L3376801607L
L3451689588L
L2815001723L
L4009244403L
L1874330547L
L228736935L
L3981691711L
L4286916964L
L3479540131L
L2317311723L
L2309998113L
L2479927275L
L114707286L
L1409529304L
L713703499L
L1027772815L
L2225441845L
L3083964687L
L1277117849L
L2139375516L
L2666381926L
L1397678255L
L625290847L
L3366150742L
L1834465252L
L1380051299L
L1687330569L
L74710235L
L3590978497L
L2876748497L
L709309860L
L1518951345L
L420L
tp1735
Ntp1736
sS'halloffame'
p1737
g2
(cdeap.tools.support
HallOfFame
p1738
g4
Ntp1739
Rp1740
(dp1741
S'keys'
p1742
(lp1743
g2
(g28
g4
Ntp1744
Rp1745
(dp1746
g32
g88
sg34
g1490
sbag2
(g28
g4
Ntp1747
Rp1748
(dp1749
g32
g97
sg34
g1015
sbag2
(g28
g4
Ntp1750
Rp1751
(dp1752
g32
g43
sg34
g202
sbag2
(g28
g4
Ntp1753
Rp1754
(dp1755
g32
g97
sg34
g628
sbag2
(g28
g4
Ntp1756
Rp1757
(dp1758
g32
g106
sg34
g1324
sbag2
(g28
g4
Ntp1759
Rp1760
(dp1761
g32
g115
sg34
g462
sbag2
(g28
g4
Ntp1762
Rp1763
(dp1764
g32
g106
sg34
g1258
sbag2
(g28
g4
Ntp1765
Rp1766
(dp1767
g32
g115
sg34
g116
sbag2
(g28
g4
Ntp1768
Rp1769
(dp1770
g32
g106
sg34
g1070
sbag2
(g28
g4
Ntp1771
Rp1772
(dp1773
g32
g106
sg34
g871
sbasS'items'
p1774
(lp1775
g2
(g20
g21
(lp1776
F1.3839934865359798
aF7.055667702289325
aF3.627017761921942
aF0.0024495841886588467
aF0.04678845892044135
aF0.9861268150134795
atp1777
Rp1778
(dp1779
g26
I55
sg271
g272
(g276
S'\x00t!\x1a\x8b\xdfR?'
p1780
tp1781
Rp1782
sg27
g1772
sbag2
(g20
g21
(lp1783
F2.1246997752670764
aF7.055667702289325
aF3.627017761921942
aF0.0024495841886588467
aF0.04566852568300985
aF0.9861268150134795
atp1784
Rp1785
(dp1786
g26
I87
sg271
g272
(g276
S'\x00\x80\xa9j\x90\x07\x0c?'
p1787
tp1788
Rp1789
sg27
g1769
sbag2
(g20
g21
(lp1790
F5.250724677564164
aF6.054421676632496
aF0.7314479694528793
aF0.0024274754614333222
aF0.03987023263729039
aF0.41431405786937436
atp1791
Rp1792
(dp1793
g27
g1766
sbag2
(g20
g21
(lp1794
F1.291530098258374
aF7.128488346365854
aF4.436757832264828
aF0.0024495841886588467
aF0.049428033047634864
aF0.9746500128604392
atp1795
Rp1796
(dp1797
g26
I96
sg271
g272
(g276
S'\x00<\xbe\xfa\x0b\xe7\x86?'
p1798
tp1799
Rp1800
sg27
g1763
sbag2
(g20
g21
(lp1801
F5.2130535382025975
aF5.887475377562374
aF0.7647474999219255
aF0.0027838917153490427
aF0.03987023263729039
aF0.44573473547869047
atp1802
Rp1803
(dp1804
g26
I20
sg271
g272
(g276
S'\x0cd\xbd,\xa0\xb5\xd2?'
p1805
tp1806
Rp1807
sg27
g1760
sbag2
(g20
g21
(lp1808
F1.3818596326933938
aF9.352779451415518
aF5.79208910520274
aF0.002490542178203414
aF0.046846258537053174
aF0.980741770459539
atp1809
Rp1810
(dp1811
g26
I96
sg271
g272
(g276
S'\x00<\xbe\xfa\x0b\xe7\x86?'
p1812
tp1813
Rp1814
sg27
g1757
sbag2
(g20
g21
(lp1815
F1.8180701060796762
aF7.466020272083162
aF7.3262503127993766
aF0.007111946577775828
aF0.0468220356959143
aF0.678650866699403
atp1816
Rp1817
(dp1818
g26
I37
sg271
g272
(g276
S'\x00X\xe2@\x84\xecb?'
p1819
tp1820
Rp1821
sg27
g1754
sbag2
(g20
g21
(lp1822
F6.655292538138524
aF7.9717441709009265
aF0.4501881042402506
aF0.0031673823825556216
aF0.03534010144749427
aF0.4327671246283466
atp1823
Rp1824
(dp1825
g26
I2
sg27
g1751
sbag2
(g20
g21
(lp1826
F2.5690618593400876
aF8.02261472362136
aF6.9868924075538725
aF0.0013750859941106448
aF0.04598431106279276
aF0.5862335776158389
atp1827
Rp1828
(dp1829
g26
I78
sg271
g272
(g276
S'\x00\xe8Y\xe0\xff=F?'
p1830
tp1831
Rp1832
sg27
g1748
sbag2
(g20
g21
(lp1833
F8.199807763688728
aF9.978217588573864
aF0.6556027288296606
aF0.00012227553959234864
aF0.04943554772213108
aF0.9721283272456823
atp1834
Rp1835
(dp1836
g26
I111
sg271
g272
(g276
S'\x00H\xfa\xbc\xfd\x02_?'
p1837
tp1838
Rp1839
sg27
g1745
sbasS'maxsize'
p1840
I10
sS'similar'
p1841
coperator
eq
p1842
sbsS'population'
p1843
(lp1844
g1539
ag2
(g20
g21
(lp1845
F7.808450199004632
aF8.975247604580005
aF4.6754724151149265
aF0.001389457176747378
aF0.0499104720648511
aF0.8875191279822356
atp1846
Rp1847
(dp1848
g26
I139
sg271
g272
(g276
S'\x00R\x1e\xd3G\xc9e?'
p1849
tp1850
Rp1851
sg27
g2
(g28
g4
Ntp1852
Rp1853
(dp1854
g32
g106
sg34
g1269
sbsbag1579
ag2
(g20
g21
(lp1855
F8.199807763688728
aF9.978217588573864
aF0.6556027288296606
aF0.00012227553959234864
aF0.04943554772213108
aF0.9721283272456823
atp1856
Rp1857
(dp1858
g26
I146
sg271
g272
(g276
S'\x00\xb6\x88{n\xccy?'
p1859
tp1860
Rp1861
sg27
g2
(g28
g4
Ntp1862
Rp1863
(dp1864
g32
g88
sg34
g1490
sbsbag2
(g20
g21
(lp1865
F7.752966232543374
aF8.829722334684588
aF6.59157993508741
aF0.0013992209890243228
aF0.04991220213483434
aF0.8875191279822356
atp1866
Rp1867
(dp1868
g26
I149
sg271
g272
(g276
S'\x00>C\xc1\x8c\xa2\x86?'
p1869
tp1870
Rp1871
sg27
g2
(g28
g4
Ntp1872
Rp1873
(dp1874
g32
g106
sg34
g1523
sbsbag1589
ag1599
ag1549
ag1569
ag1559
ag2
(g20
g21
(lp1875
F5.035474559766081
aF6.744217455538756
aF3.687302521794446
aF0.006639532314359926
aF0.04766066976402274
aF0.9886508001396197
atp1876
Rp1877
(dp1878
g26
I137
sg271
g272
(g276
S'\xa8]\x8e\xfd\xf6L\xd5?'
p1879
tp1880
Rp1881
sg27
g2
(g28
g4
Ntp1882
Rp1883
(dp1884
g32
g88
sg34
g1313
sbsbag2
(g20
g21
(lp1885
F7.164597577233376
aF4.629517206133956
aF7.592428348171318
aF0.0042051998556597294
aF0.049083347578961246
aF0.22637013826055624
atp1886
Rp1887
(dp1888
g26
I150
sg271
g272
(g276
S'\xac\x13\xff\xac+\xea\xde?'
p1889
tp1890
Rp1891
sg27
g2
(g28
g4
Ntp1892
Rp1893
(dp1894
g32
g88
sg34
g1534
sbsbag2
(g20
g21
(lp1895
F4.755830460448557
aF9.86818138571548
aF4.052884846628931
aF0.00012225921249508202
aF0.049959795272974714
aF0.9610958289112715
atp1896
Rp1897
(dp1898
g26
I143
sg271
g272
(g276
S'\x08\xf8\xe6\xa3!\x0c\xe6?'
p1899
tp1900
Rp1901
sg27
g2
(g28
g4
Ntp1902
Rp1903
(dp1904
g32
g88
sg34
g1457
sbsbag2
(g20
g21
(lp1905
F4.742049881746332
aF6.744217455538756
aF3.687302521794446
aF0.006639532314359926
aF0.04665956135651406
aF0.9952709261047465
atp1906
Rp1907
(dp1908
g26
I147
sg271
g272
(g276
S' \x98-\x86\xbfz\xec?'
p1909
tp1910
Rp1911
sg27
g2
(g28
g4
Ntp1912
Rp1913
(dp1914
g32
g88
sg34
g1501
sbsbag2
(g20
g21
(lp1915
F9.326869768165988
aF7.546290536993555
aF0.6609339134172085
aF4.839545564469636e-05
aF0.04922476961349366
aF0.974573323409414
atp1916
Rp1917
(dp1918
g26
I135
sg271
g272
(g276
S'z\x83\xfa\x92q\x12\xf5?'
p1919
tp1920
Rp1921
sg27
g2
(g28
g4
Ntp1922
Rp1923
(dp1924
g32
g106
sg34
g838
sbsbag1917
ag2
(g20
g21
(lp1925
F4.713235095362742
aF8.78237355394317
aF3.6613104412561155
aF4.839545564469636e-05
aF0.0499094043518708
aF0.9436619791991878
atp1926
Rp1927
(dp1928
g26
I145
sg271
g272
(g276
S'\x08\xe8\x0f\xb3\x99Y\xf7?'
p1929
tp1930
Rp1931
sg27
g2
(g28
g4
Ntp1932
Rp1933
(dp1934
g32
g106
sg34
g1479
sbsbag2
(g20
g21
(lp1935
F4.743964852817648
aF9.954547021911592
aF3.6515046269166502
aF0.00012227553959234864
aF0.049448468001261486
aF0.9132017840714752
atp1936
Rp1937
(dp1938
g26
I138
sg271
g272
(g276
S'\xb9+\xcfHY~\x02@'
p1939
tp1940
Rp1941
sg27
g2
(g28
g4
Ntp1942
Rp1943
(dp1944
g32
g88
sg34
g1059
sbsbag1937
ag1937
as.