(dp0
S'history'
p1
ccopy_reg
_reconstructor
p2
(cdeap.tools.support
History
p3
c__builtin__
object
p4
Ntp5
Rp6
(dp7
S'genealogy_tree'
p8
(dp9
I1
(tsI2
(tsI3
(tsI4
(tsI5
(tsI6
(tsI7
(tsI8
(tsI9
(tsI10
(tsI11
(I1
I2
I3
I4
I5
I6
I7
I8
I9
I10
I1
I2
I3
I4
I5
I6
I7
I8
I9
I10
tp10
sI12
g10
sI13
g10
sI14
g10
sI15
g10
sI16
g10
sI17
g10
sI18
g10
sI19
g10
sI20
g10
sI21
g10
sI22
g10
sI23
g10
sI24
g10
sI25
g10
sI26
g10
sI27
g10
sI28
g10
sI29
g10
sI30
g10
ssS'genealogy_index'
p11
I30
sS'genealogy_history'
p12
(dp13
I1
g2
(cbluepyopt.deapext.optimisations
WSListIndividual
p14
c__builtin__
list
p15
(lp16
F1.6898967434790517
aF8.535363874597433
aF7.7322363421754945
aF0.002550764750491643
aF0.024771804811088337
aF0.4494911198396317
atp17
Rp18
(dp19
S'history_index'
p20
I1
sS'fitness'
p21
g2
(cbluepyopt.deapext.optimisations
WeightedSumFitness
p22
g4
Ntp23
Rp24
(dp25
S'weights'
p26
(lp27
F-1.0
aF-1.0
aF-1.0
aF-1.0
aF-1.0
aF-1.0
aF-1.0
aF-1.0
aF-1.0
aF-1.0
aF-1.0
aF-1.0
aF-1.0
aF-1.0
aF-1.0
aF-1.0
aF-1.0
asS'wvalues'
p28
(F-15.0
F-0.03565718427088841
F-60.51911498643603
F-250.0
F-3.4718523849278355
F-0.5718961756197792
F-250.0
F-250.0
F-0.6689225143550124
F-250.0
F-77.86351253762268
F-1.3412816691506637
F-61.163122327303675
F-6.666666666666666
F-0.8769804211254433
F-3.358089099367178
F-21.09424920128205
tp29
sbsbsI2
g2
(g14
g15
(lp30
F6.655292538138524
aF7.9717441709009265
aF1.301052033032655
aF0.0002835719304724109
aF0.0417882716194831
aF0.4327671246283466
atp31
Rp32
(dp33
g20
I2
sg21
g2
(g22
g4
Ntp34
Rp35
(dp36
g26
(lp37
F-1.0
aF-1.0
aF-1.0
aF-1.0
aF-1.0
aF-1.0
aF-1.0
aF-1.0
aF-1.0
aF-1.0
aF-1.0
aF-1.0
aF-1.0
aF-1.0
aF-1.0
aF-1.0
aF-1.0
asg28
(F-10.0
F-7.669511097871501
F-7.95663142516748
F-250.0
F-14.05840914298896
F-0.5687486528040766
F-250.0
F-250.0
F-0.7069415166146372
F-157.0979443772672
F-13.90313550824237
F-14.485842026827166
F-36.11258121303774
F-6.666666666666666
F-0.9145902297416454
F-3.3581654133420544
F-13.147309536494435
tp38
sbsbsI3
g2
(g14
g15
(lp39
F7.717888791596243
aF0.4202181121706627
aF4.675717062926094
aF0.007215428169404592
aF0.011438188187300505
aF0.9452707010268527
atp40
Rp41
(dp42
g20
I3
sg21
g2
(g22
g4
Ntp43
Rp44
(dp45
g26
(lp46
F-1.0
aF-1.0
aF-1.0
aF-1.0
aF-1.0
aF-1.0
aF-1.0
aF-1.0
aF-1.0
aF-1.0
aF-1.0
aF-1.0
aF-1.0
aF-1.0
aF-1.0
aF-1.0
aF-1.0
asg28
(F-20.0
F-0.8052099506028875
F-40.221406173370404
F-250.0
F-4.9882410494609974
F-0.6098704932263947
F-250.0
F-250.0
F-0.39681782054660136
F-250.0
F-52.4502517362551
F-250.0
F-250.0
F-250.0
F-0.6078043552250332
F-3.356110180527285
F-250.0
tp47
sbsbsI4
g2
(g14
g15
(lp48
F9.053703593070242
aF0.693663837122114
aF0.6442802655372237
aF0.005414170586687687
aF0.04695746422400925
aF0.3812042995677887
atp49
Rp50
(dp51
g20
I4
sg21
g2
(g22
g4
Ntp52
Rp53
(dp54
g26
(lp55
F-1.0
aF-1.0
aF-1.0
aF-1.0
aF-1.0
aF-1.0
aF-1.0
aF-1.0
aF-1.0
aF-1.0
aF-1.0
aF-1.0
aF-1.0
aF-1.0
aF-1.0
aF-1.0
aF-1.0
asg28
(F-10.0
F-8.001526610133785
F-6.798196065355609
F-250.0
F-14.517785144764193
F-0.570011704072944
F-250.0
F-250.0
F-0.7261461656471853
F-215.98548972182033
F-12.688835072116072
F-14.605067064085004
F-44.65318587618666
F-8.88888888887373
F-0.9335881816006428
F-3.358445699246748
F-14.82342287956396
tp56
sbsbsI5
g2
(g14
g15
(lp57
F2.479354212453888
aF4.452319125594086
aF0.6787915607187323
aF0.0022169944935637232
aF0.021894435893769236
aF0.4958122918006265
atp58
Rp59
(dp60
g20
I5
sg21
g2
(g22
g4
Ntp61
Rp62
(dp63
g26
(lp64
F-1.0
aF-1.0
aF-1.0
aF-1.0
aF-1.0
aF-1.0
aF-1.0
aF-1.0
aF-1.0
aF-1.0
aF-1.0
aF-1.0
aF-1.0
aF-1.0
aF-1.0
aF-1.0
aF-1.0
asg28
(F-15.0
F-10.294116524809501
F-7.79991406650614
F-250.0
F-17.797147237131544
F-0.575157392394988
F-250.0
F-250.0
F-0.6452953626693807
F-250.0
F-3.5772241153685176
F-17.37704918032971
F-17.675538444671073
F-2.2222222222222223
F-0.8536075654420034
F-3.3579230996210967
F-272.3295454547774
tp65
sbsbsI6
g2
(g14
g15
(lp66
F2.6376107224726972
aF2.616318798793449
aF2.5002979584418106
aF0.004596088697030763
aF0.01448915175136282
aF0.02148980311693835
atp67
Rp68
(dp69
g20
I6
sg21
g2
(g22
g4
Ntp70
Rp71
(dp72
g26
(lp73
F-1.0
aF-1.0
aF-1.0
aF-1.0
aF-1.0
aF-1.0
aF-1.0
aF-1.0
aF-1.0
aF-1.0
aF-1.0
aF-1.0
aF-1.0
aF-1.0
aF-1.0
aF-1.0
aF-1.0
asg28
(F-15.0
F-8.531358659803542
F-11.266356935898898
F-250.0
F-14.40006503582725
F-0.54332473939787
F-250.0
F-250.0
F-0.9228232972550451
F-250.0
F-15.855663852442527
F-15.201192250374188
F-42.98650745305747
F-28.88888888888889
F-1.1281485024749918
F-3.360167180765582
F-139.78260869572046
tp74
sbsbsI7
g2
(g14
g15
(lp75
F8.4407485663607
aF5.741961497463361
aF6.566025884151478
aF0.0018591440683205878
aF0.04962717135446204
aF0.859946542800637
atp76
Rp77
(dp78
g20
I7
sg21
g2
(g22
g4
Ntp79
Rp80
(dp81
g26
(lp82
F-1.0
aF-1.0
aF-1.0
aF-1.0
aF-1.0
aF-1.0
aF-1.0
aF-1.0
aF-1.0
aF-1.0
aF-1.0
aF-1.0
aF-1.0
aF-1.0
aF-1.0
aF-1.0
aF-1.0
asg28
(F-10.0
F-1.3445326468528136
F-60.041585934113975
F-250.0
F-1.9362445919275728
F-0.5992506157122152
F-250.0
F-250.0
F-0.4777886006879928
F-7.061668681983071
F-80.27820414939636
F-1.3710879284651227
F-72.7656501223963
F-8.88888888888889
F-0.6879036572484409
F-3.3560574895353756
F-9.501146788991617
tp83
sbsbsI8
g2
(g14
g15
(lp84
F1.5605436141357414
aF3.593873779457239
aF7.3262503127993766
aF0.007111946577775828
aF0.0468220356959143
aF0.4221070577507152
atp85
Rp86
(dp87
g20
I8
sg21
g2
(g22
g4
Ntp88
Rp89
(dp90
g26
(lp91
F-1.0
aF-1.0
aF-1.0
aF-1.0
aF-1.0
aF-1.0
aF-1.0
aF-1.0
aF-1.0
aF-1.0
aF-1.0
aF-1.0
aF-1.0
aF-1.0
aF-1.0
aF-1.0
aF-1.0
asg28
(F-5.0
F-0.6261097661339112
F-55.69646964091524
F-250.0
F-4.254866481818436
F-0.574043743044291
F-12.896013793070233
F-250.0
F-0.6933317811057035
F-50.51995163240627
F-71.70589210768811
F-12.995529061104207
F-13.256925903621381
F-6.666666666666667
F-0.901126974069844
F-3.3580181236709157
F-8.640712393288233
tp92
sbsbsI9
g2
(g14
g15
(lp93
F8.368342655433539
aF6.834933437575082
aF3.312337704956009
aF0.0058758473033749805
aF0.0441239617936928
aF0.8461974338085709
atp94
Rp95
(dp96
g20
I9
sg21
g2
(g22
g4
Ntp97
Rp98
(dp99
g26
(lp100
F-1.0
aF-1.0
aF-1.0
aF-1.0
aF-1.0
aF-1.0
aF-1.0
aF-1.0
aF-1.0
aF-1.0
aF-1.0
aF-1.0
aF-1.0
aF-1.0
aF-1.0
aF-1.0
aF-1.0
asg28
(F-15.0
F-2.4423027995653714
F-29.671632368496933
F-250.0
F-7.162532056428991
F-0.6022095691630469
F-250.0
F-250.0
F-0.4692655300031222
F-250.0
F-40.677588940288516
F-6.169895678093052
F-73.61215735164252
F-6.666666666666666
F-0.6794723192798282
F-3.3560698503607704
F-35.441810344835304
tp101
sbsbsI10
g2
(g14
g15
(lp102
F5.250724677564164
aF6.054421676632496
aF0.7314479694528793
aF0.0024274754614333222
aF0.03987023263729039
aF0.41431405786937436
atp103
Rp104
(dp105
g20
I10
sg21
g2
(g22
g4
Ntp106
Rp107
(dp108
g26
(lp109
F-1.0
aF-1.0
aF-1.0
aF-1.0
aF-1.0
aF-1.0
aF-1.0
aF-1.0
aF-1.0
aF-1.0
aF-1.0
aF-1.0
aF-1.0
aF-1.0
aF-1.0
aF-1.0
aF-1.0
asg28
(F-15.0
F-9.572061657609819
F-0.8803333322507367
F-250.0
F-16.689234183482768
F-0.5695924976327933
F-250.0
F-250.0
F-0.7088424094037143
F-250.0
F-4.124476311064058
F-16.184798807751342
F-17.479298380433697
F-6.666666666666666
F-0.9164706634655213
F-3.3582928467532445
F-180.97656250010877
tp110
sbsbsI11
g2
(g14
g15
(lp111
F1.6898967434790517
aF8.535363874597433
aF7.7322363421754945
aF0.002550764750491643
aF0.024771804811088337
aF0.4494911198396317
atp112
Rp113
(dp114
g20
I11
sg21
g2
(g22
g4
Ntp115
Rp116
(dp117
g26
g27
sg28
g29
sbsbsI12
g2
(g14
g15
(lp118
F6.655292538138524
aF7.9717441709009265
aF1.301052033032655
aF0.0002835719304724109
aF0.0417882716194831
aF0.4327671246283466
atp119
Rp120
(dp121
g20
I12
sg21
g2
(g22
g4
Ntp122
Rp123
(dp124
g26
g37
sg28
g38
sbsbsI13
g2
(g14
g15
(lp125
F7.717888791596243
aF0.4202181121706627
aF4.675717062926094
aF0.007215428169404592
aF0.011438188187300505
aF0.9452707010268527
atp126
Rp127
(dp128
g20
I13
sg21
g2
(g22
g4
Ntp129
Rp130
(dp131
g26
g46
sg28
g47
sbsbsI14
g2
(g14
g15
(lp132
F9.053703593070242
aF0.693663837122114
aF0.6442802655372237
aF0.005414170586687687
aF0.04695746422400925
aF0.3812042995677887
atp133
Rp134
(dp135
g20
I14
sg21
g2
(g22
g4
Ntp136
Rp137
(dp138
g26
g55
sg28
g56
sbsbsI15
g2
(g14
g15
(lp139
F2.479354212453888
aF4.452319125594086
aF0.6787915607187323
aF0.0022169944935637232
aF0.021894435893769236
aF0.4958122918006265
atp140
Rp141
(dp142
g20
I15
sg21
g2
(g22
g4
Ntp143
Rp144
(dp145
g26
g64
sg28
g65
sbsbsI16
g2
(g14
g15
(lp146
F2.6376107224726972
aF2.616318798793449
aF2.5002979584418106
aF0.004596088697030763
aF0.01448915175136282
aF0.02148980311693835
atp147
Rp148
(dp149
g20
I16
sg21
g2
(g22
g4
Ntp150
Rp151
(dp152
g26
g73
sg28
g74
sbsbsI17
g2
(g14
g15
(lp153
F8.4407485663607
aF5.741961497463361
aF6.566025884151478
aF0.0018591440683205878
aF0.04962717135446204
aF0.859946542800637
atp154
Rp155
(dp156
g20
I17
sg21
g2
(g22
g4
Ntp157
Rp158
(dp159
g26
g82
sg28
g83
sbsbsI18
g2
(g14
g15
(lp160
F1.5605436141357414
aF3.593873779457239
aF7.3262503127993766
aF0.007111946577775828
aF0.0468220356959143
aF0.4221070577507152
atp161
Rp162
(dp163
g20
I18
sg21
g2
(g22
g4
Ntp164
Rp165
(dp166
g26
g91
sg28
g92
sbsbsI19
g2
(g14
g15
(lp167
F8.368342655433539
aF6.834933437575082
aF3.312337704956009
aF0.0058758473033749805
aF0.0441239617936928
aF0.8461974338085709
atp168
Rp169
(dp170
g20
I19
sg21
g2
(g22
g4
Ntp171
Rp172
(dp173
g26
g100
sg28
g101
sbsbsI20
g2
(g14
g15
(lp174
F5.250724677564164
aF6.054421676632496
aF0.7314479694528793
aF0.0024274754614333222
aF0.03987023263729039
aF0.41431405786937436
atp175
Rp176
(dp177
g20
I20
sg21
g2
(g22
g4
Ntp178
Rp179
(dp180
g26
g109
sg28
g110
sbsbsI21
g2
(g14
g15
(lp181
F1.2113530771076202
aF8.667674294764197
aF7.7322363421754945
aF0.00030136939163206066
aF0.024771804811088337
aF0.4494911198396317
atp182
Rp183
(dp184
g20
I21
sg21
g2
(g22
g4
Ntp185
Rp186
(dp187
g26
g27
sg28
(F-15.0
F-0.12902935579053082
F-59.86838540496054
F-250.0
F-3.6852087117938264
F-0.5694521986572885
F-250.0
F-250.0
F-0.674547724851993
F-250.0
F-76.37364816245817
F-4.44113263785442
F-44.21361695889095
F-6.666666666666666
F-0.8825450882035683
F-3.357943095852767
F-29.28160919540832
tp188
sbsbsI22
g2
(g14
g15
(lp189
F6.655292538138524
aF7.9717441709009265
aF0.4501881042402506
aF0.0031673823825556216
aF0.03534010144749427
aF0.4327671246283466
atp190
Rp191
(dp192
g20
I22
sg21
g2
(g22
g4
Ntp193
Rp194
(dp195
g26
g37
sg28
(F-10.0
F-9.238681369115941
F-0.17859228102271454
F-250.0
F-16.33937312200661
F-0.5715060036214138
F-250.0
F-250.0
F-0.6909650732834405
F-159.15356711003588
F-5.437459678242858
F-15.707898658719994
F-51.60682544259158
F-2.22222222220959
F-0.8987857388202196
F-3.358236015800484
F-13.187235169491542
tp196
sbsbsI23
g2
(g14
g15
(lp197
F7.955812274430505
aF0.4202181121706627
aF4.162651970372639
aF0.007215428169404592
aF0.011221296925742794
aF0.7029878043989166
atp198
Rp199
(dp200
g20
I23
sg21
g2
(g22
g4
Ntp201
Rp202
(dp203
g26
g46
sg28
(F-20.0
F-1.6493887011441533
F-36.54927141552107
F-250.0
F-6.003024392863222
F-0.5954637626011406
F-250.0
F-250.0
F-0.5121694829518695
F-250.0
F-48.42542105944127
F-250.0
F-250.0
F-250.0
F-0.7219145024876327
F-3.35670951811226
F-250.0
tp204
sbsbsI24
g2
(g14
g15
(lp205
F7.0526400668387605
aF1.9989749978238982
aF0.6442802655372237
aF0.005627364775620524
aF0.045167411721541095
aF0.1285849460744397
atp206
Rp207
(dp208
g20
I24
sg21
g2
(g22
g4
Ntp209
Rp210
(dp211
g26
g55
sg28
(F-15.0
F-9.885310450560238
F-2.6629362050476044
F-250.0
F-16.429800211539025
F-0.5520532475262483
F-250.0
F-250.0
F-0.8870865151762137
F-250.0
F-7.136309758691068
F-16.065573770493504
F-17.910152576616127
F-20.0
F-1.0927963507965897
F-3.3596989489747577
F-174.88636363646583
tp212
sbsbsI25
g2
(g14
g15
(lp213
F2.479354212453888
aF4.900774189753166
aF0.6787653109162933
aF0.0022169944935637232
aF0.02669502870025975
aF0.4958122918006265
atp214
Rp215
(dp216
g20
I25
sg21
g2
(g22
g4
Ntp217
Rp218
(dp219
g26
g64
sg28
(F-15.0
F-10.3180221685297
F-7.751685946283413
F-250.0
F-17.805960023622863
F-0.5749770889441768
F-250.0
F-250.0
F-0.6494884600201292
F-250.0
F-3.4869439880387416
F-17.496274217587544
F-8.90761459968179
F-2.2222222222222223
F-0.8577555330239468
F-3.35789335307834
F-286.2500000002548
tp220
sbsbsI26
g2
(g14
g15
(lp221
F2.940299655623448
aF2.7588240998593214
aF2.7640098748139708
aF0.004138954115171498
aF0.02169187720542049
aF0.02148980311693835
atp222
Rp223
(dp224
g20
I26
sg21
g2
(g22
g4
Ntp225
Rp226
(dp227
g26
g73
sg28
(F-15.0
F-7.8715665550232075
F-14.570408686463297
F-250.0
F-13.454721424744207
F-0.5429228870344057
F-250.0
F-250.0
F-0.9347370174762367
F-250.0
F-21.486979648340828
F-15.409836065575401
F-25.74259186733066
F-33.333333333333336
F-1.1399339968539917
F-3.360232374505823
F-147.04545454552928
tp228
sbsbsI27
g2
(g14
g15
(lp229
F8.4407485663607
aF7.40826081394746
aF6.566025884151478
aF0.0013399332160222222
aF0.04990696731896817
aF0.9240217710462983
atp230
Rp231
(dp232
g20
I27
sg21
g2
(g22
g4
Ntp233
Rp234
(dp235
g26
g82
sg28
(F-10.0
F-1.4238666925374428
F-60.378933790067336
F-250.0
F-1.8565042130139844
F-0.6031813233482469
F-250.0
F-250.0
F-0.4465267153312693
F-17.194679564691654
F-80.43982099242204
F-1.6393442622952554
F-75.69422773463481
F-11.11111111111111
F-0.6569782395528629
F-3.3557867255147373
F-2.725265017668242
tp236
sbsbsI28
g2
(g14
g15
(lp237
F1.5605436141357414
aF4.687277761993222
aF7.3262503127993766
aF0.007111946577775828
aF0.0468220356959143
aF0.38952038461623756
atp238
Rp239
(dp240
g20
I28
sg21
g2
(g22
g4
Ntp241
Rp242
(dp243
g26
g91
sg28
(F-5.0
F-0.6592370455013538
F-56.20416552810468
F-20.491438100193488
F-4.257016628891486
F-0.5719187918036429
F-9.859437006749022
F-19.180500245831727
F-0.7131162330117116
F-2.0314389359129383
F-71.88999142486556
F-13.144560357676504
F-10.341768748375511
F-4.000000000004042
F-0.9206984884583639
F-3.3585372781926304
F-5.10077609173893
tp244
sbsbsI29
g2
(g14
g15
(lp245
F5.531786269441057
aF6.043733415461663
aF3.659080543241897
aF0.0024838513579583305
aF0.047675587365539576
aF0.8461974338085709
atp246
Rp247
(dp248
g20
I29
sg21
g2
(g22
g4
Ntp249
Rp250
(dp251
g26
g100
sg28
(F-15.0
F-3.1634148545460588
F-27.11503641252564
F-250.0
F-8.170761420347585
F-0.6001843821082727
F-250.0
F-250.0
F-0.4820397198008305
F-250.0
F-35.820059890512965
F-10.044709388972747
F-38.25062129638801
F-2.2222222222222223
F-0.6921090221116925
F-3.356033539945667
F-57.020958083847646
tp252
sbsbsI30
g2
(g14
g15
(lp253
F7.725619554084025
aF6.054421676632496
aF0.7351834996752842
aF0.00507291427288525
aF0.03987023263729039
aF0.41431405786937436
atp254
Rp255
(dp256
g20
I30
sg21
g2
(g22
g4
Ntp257
Rp258
(dp259
g26
g109
sg28
(F-10.0
F-8.260864366951612
F-5.106310358036794
F-250.0
F-14.947025246477011
F-0.5719628708427853
F-250.0
F-250.0
F-0.7000430059310508
F-162.80532043530286
F-10.108360535080378
F-14.694485842028381
F-49.842349216018505
F-4.444444444431812
F-0.9077659668434568
F-3.3583218548538016
F-13.350135711515927
tp260
sbsbssbsS'parents'
p261
(lp262
g2
(g14
g15
(lp263
F8.368342655433539
aF6.834933437575082
aF3.312337704956009
aF0.0058758473033749805
aF0.0441239617936928
aF0.8461974338085709
atp264
Rp265
(dp266
g20
I19
sS'ibea_fitness'
p267
cnumpy.core.multiarray
scalar
p268
(cnumpy
dtype
p269
(S'f8'
p270
I0
I1
tp271
Rp272
(I3
S'<'
p273
NNNI-1
I-1
I0
tp274
bS'\xc84a\xf9\xd2\xfb\xcb?'
p275
tp276
Rp277
sg21
g2
(g22
g4
Ntp278
Rp279
(dp280
g26
g100
sg28
g101
sbsbag2
(g14
g15
(lp281
F7.0526400668387605
aF1.9989749978238982
aF0.6442802655372237
aF0.005627364775620524
aF0.045167411721541095
aF0.1285849460744397
atp282
Rp283
(dp284
g20
I24
sg267
g268
(g272
S'\xd0\xfa\xc6?\x84\xd2\xb9?'
p285
tp286
Rp287
sg21
g2
(g22
g4
Ntp288
Rp289
(dp290
g26
g55
sg28
g212
sbsbag2
(g14
g15
(lp291
F5.531786269441057
aF6.043733415461663
aF3.659080543241897
aF0.0024838513579583305
aF0.047675587365539576
aF0.8461974338085709
atp292
Rp293
(dp294
g20
I29
sg267
g268
(g272
S'`E\xb7(\x0cc\xab?'
p295
tp296
Rp297
sg21
g2
(g22
g4
Ntp298
Rp299
(dp300
g26
g100
sg28
g252
sbsbag2
(g14
g15
(lp301
F2.940299655623448
aF2.7588240998593214
aF2.7640098748139708
aF0.004138954115171498
aF0.02169187720542049
aF0.02148980311693835
atp302
Rp303
(dp304
g20
I26
sg267
g268
(g272
S'HA\xd3\x8a\r\xaf\xd0?'
p305
tp306
Rp307
sg21
g2
(g22
g4
Ntp308
Rp309
(dp310
g26
g73
sg28
g228
sbsbag2
(g14
g15
(lp311
F7.955812274430505
aF0.4202181121706627
aF4.162651970372639
aF0.007215428169404592
aF0.011221296925742794
aF0.7029878043989166
atp312
Rp313
(dp314
g20
I23
sg267
g268
(g272
S'H\xfe\xf0-\xdc\xe0\xc9?'
p315
tp316
Rp317
sg21
g2
(g22
g4
Ntp318
Rp319
(dp320
g26
g46
sg28
g204
sbsbag2
(g14
g15
(lp321
F7.717888791596243
aF0.4202181121706627
aF4.675717062926094
aF0.007215428169404592
aF0.011438188187300505
aF0.9452707010268527
atp322
Rp323
(dp324
g20
I13
sg267
g268
(g272
S' \xe6T\x90\xc7\x1b\xb1?'
p325
tp326
Rp327
sg21
g2
(g22
g4
Ntp328
Rp329
(dp330
g26
g46
sg28
g47
sbsbag2
(g14
g15
(lp331
F1.5605436141357414
aF4.687277761993222
aF7.3262503127993766
aF0.007111946577775828
aF0.0468220356959143
aF0.38952038461623756
atp332
Rp333
(dp334
g20
I28
sg267
g268
(g272
S'\x00\x00\x00\x88_\x06e>'
p335
tp336
Rp337
sg21
g2
(g22
g4
Ntp338
Rp339
(dp340
g26
g91
sg28
g244
sbsbag265
ag283
ag293
asS'generation'
p341
I2
sS'logbook'
p342
g2
(cdeap.tools.support
Logbook
p343
g15
(lp344
(dp345
S'std'
p346
g268
(g272
S'vK\x9a\x89\xabBu@'
p347
tp348
Rp349
sS'nevals'
p350
I10
sS'min'
p351
g268
(g272
S'\xec\xf3\x18\x07I^\x87@'
p352
tp353
Rp354
sS'max'
p355
g268
(g272
S'\x9e\x98\x9c\x15\xdf\x96\xa0@'
p356
tp357
Rp358
sS'avg'
p359
g268
(g272
S"E'\x14\xbb\x1fo\x93@"
p360
tp361
Rp362
sS'gen'
p363
I1
sa(dp364
g346
g268
(g272
S'4\xb1\xf6\xee\xb6\x92x@'
p365
tp366
Rp367
sg350
I10
sg351
g268
(g272
S'\xe4\xde<\xee/wl@'
p368
tp369
Rp370
sg355
g268
(g272
S'\x9e\x98\x9c\x15\xdf\x96\xa0@'
p371
tp372
Rp373
sg359
g268
(g272
S'\xbc\x18\x14\x857\xfb\x92@'
p374
tp375
Rp376
sg363
I2
satp377
Rp378
(dp379
S'log_header'
p380
I01
sS'header'
p381
(lp382
g363
ag350
ag359
ag346
ag351
ag355
asS'columns_len'
p383
(lp384
I3
aI6
aI7
aI7
aI7
aI7
asS'buffindex'
p385
I2
sS'chapters'
p386
ccollections
defaultdict
p387
(g343
tp388
Rp389
sbsS'rndstate'
p390
(I3
(L2145931878L
L2812664348L
L2124062512L
L3757238068L
L2453315318L
L1634707757L
L1382563816L
L2097433739L
L311746133L
L2032626074L
L2617776101L
L1877538630L
L1158287594L
L1111761113L
L650853131L
L3869983018L
L2622923993L
L3845947563L
L4034124803L
L3529923841L
L263419425L
L988778765L
L459585442L
L250000960L
L2862328889L
L3831024473L
L376081109L
L3160276335L
L2681558278L
L3610562257L
L3737464566L
L4277502420L
L810823568L
L1660136801L
L3616377324L
L3405043087L
L312580666L
L3533264489L
L1350493301L
L2122280547L
L3694157202L
L4101260871L
L334760505L
L1001399085L
L4032193053L
L635051900L
L1014848001L
L77323629L
L1070905620L
L4245065876L
L197191146L
L2668164234L
L2624765451L
L3263880227L
L1253021119L
L780557860L
L3494191106L
L1888043228L
L2730480597L
L2457734185L
L533240640L
L3054437375L
L2913464164L
L1357763286L
L1045027602L
L1724499345L
L3008672616L
L3438668475L
L3323437141L
L2773702905L
L747342820L
L346050065L
L2381318917L
L2928624060L
L3817839784L
L802250010L
L2271060476L
L1303931860L
L1637065750L
L452736219L
L1148317707L
L2293975124L
L1759645173L
L1550558780L
L3345762501L
L1608452836L
L2598279791L
L3660910759L
L978982086L
L4120101375L
L3894792265L
L2823378193L
L934829337L
L4286897875L
L4002609413L
L4246864328L
L1324405512L
L279562789L
L3043357970L
L3228171372L
L2258574612L
L406825161L
L1388938891L
L1964036799L
L1803893273L
L4119105266L
L4040973308L
L2846817613L
L1069387937L
L410354976L
L1831161730L
L1377379312L
L3275937080L
L1785820974L
L2746243425L
L943998045L
L388790751L
L3234299277L
L1458745124L
L4273819277L
L3014921995L
L932388939L
L494247651L
L3089207579L
L32910364L
L1720974976L
L2769802043L
L4016334306L
L2247766834L
L3414149001L
L2454052410L
L700926996L
L501327659L
L3168332128L
L3664981204L
L2837401143L
L301098975L
L3520268638L
L1390827609L
L341186989L
L941589979L
L1710246063L
L43416237L
L1302636405L
L3868932099L
L2924349096L
L3324782012L
L3799410212L
L4102741388L
L31863226L
L2111384030L
L3113879245L
L270856142L
L2994106877L
L642831667L
L3306439346L
L1408809959L
L3978918894L
L3422047912L
L239974707L
L1550642032L
L2043847969L
L3027673654L
L2529047530L
L3070308428L
L4054575122L
L3400858435L
L3272761741L
L1475089226L
L3147811930L
L386952169L
L3319901201L
L732520351L
L1317005210L
L790631883L
L3220337686L
L4139120751L
L2658777157L
L3086988428L
L1793254639L
L2750911286L
L3653955340L
L452165491L
L1605816595L
L203032188L
L3612712556L
L3824620473L
L3076469577L
L867345620L
L158571227L
L1927009577L
L106535911L
L579058007L
L115010199L
L2358886172L
L247889382L
L2506598836L
L3983367197L
L1580571821L
L2665295034L
L2683285595L
L3738351894L
L594605564L
L4098727176L
L774035931L
L2537418448L
L4158003969L
L1535576236L
L572209529L
L842702075L
L3778032710L
L2783384848L
L2200217090L
L2794415814L
L311739062L
L3969800442L
L1247200684L
L1433159463L
L2179685797L
L4175775678L
L3654853992L
L3896011302L
L4061611257L
L2626140823L
L3103130952L
L3930139487L
L254052748L
L3855707803L
L4196974555L
L1060884119L
L370921039L
L1369695587L
L3476738923L
L2162894901L
L4206583013L
L2395981551L
L255940678L
L3708995520L
L3392486002L
L2689507313L
L752695856L
L125947260L
L467246764L
L40871673L
L3043356200L
L200152678L
L2085165538L
L3794697076L
L3939684254L
L1037585914L
L102277793L
L2637200524L
L3627750205L
L380912797L
L665055749L
L392498022L
L2996789283L
L1318254951L
L316222422L
L1961777278L
L3679659174L
L1113345985L
L1938416582L
L157033001L
L1060150735L
L2928427570L
L3031880670L
L1249659479L
L2103732829L
L1662315153L
L224134794L
L1666358220L
L3491691947L
L2994204234L
L3329478809L
L450393053L
L2475722664L
L3882254920L
L1963172877L
L1595157620L
L3822895224L
L219949288L
L3264033175L
L1768824945L
L3394654527L
L813157357L
L2652542294L
L2960758170L
L2006940009L
L417447429L
L2718236352L
L2306344607L
L3825472333L
L652682110L
L3646396725L
L4178601215L
L4182934660L
L172883031L
L2673609519L
L2246646249L
L909411501L
L2850241054L
L4285343988L
L1592910492L
L1859326953L
L155590330L
L3825048667L
L3150087862L
L4015479494L
L1261845165L
L3080033638L
L2814764156L
L3605663608L
L2619617803L
L1255448837L
L1340967525L
L2863030729L
L1623023707L
L3021485081L
L2294903856L
L4079437409L
L3401442104L
L4150346880L
L905975971L
L2264911473L
L2661393375L
L1911345740L
L3800820143L
L4045562039L
L2558483597L
L1459757714L
L118106860L
L1165858281L
L3057048982L
L1457598026L
L197563863L
L3482681317L
L1713976572L
L1704580147L
L1345230193L
L960599348L
L2434153067L
L3986217646L
L2562071497L
L4277326293L
L2288804618L
L2373075337L
L4026907498L
L559399088L
L3994811970L
L1748246240L
L687909573L
L2656541313L
L172839962L
L1174986454L
L4123080855L
L2239769691L
L222356582L
L4076456083L
L446958688L
L842651752L
L3561944614L
L3880131068L
L3433903804L
L3507559252L
L1012782172L
L2558770155L
L2772515112L
L4025245999L
L3248494244L
L1779144398L
L3395778014L
L2734475333L
L695844093L
L1290330662L
L1348668716L
L1169819265L
L796648845L
L1416586549L
L1522242969L
L2981687293L
L1468877895L
L1627160527L
L3666017126L
L1084527681L
L2601809345L
L72723237L
L1387085801L
L334999804L
L1564694271L
L3733856209L
L681963346L
L3489909748L
L949258174L
L2928118053L
L3863991536L
L3860593327L
L371432064L
L2575555142L
L426115244L
L2954856811L
L738028837L
L2664775487L
L2540462133L
L1322574653L
L2440615834L
L1338114700L
L3445183261L
L2821723677L
L2272860399L
L885803491L
L634144735L
L3275178777L
L83733744L
L1593352389L
L4046246413L
L877273755L
L683929789L
L790672351L
L2430706559L
L570506740L
L2669651553L
L209071247L
L3739791889L
L472530666L
L2981037569L
L40670990L
L4292910015L
L3195102466L
L1086142594L
L401531731L
L1619377167L
L4284349834L
L1834858583L
L1172361590L
L2976206011L
L2415996136L
L1956409217L
L1033358882L
L1370606489L
L1598039538L
L96830232L
L3131853462L
L3069309981L
L1400793433L
L534873231L
L2935522266L
L4083954307L
L1846596282L
L4275881991L
L773909968L
L1619496540L
L4241071846L
L3009854081L
L1952112440L
L2909601846L
L916094182L
L2826710343L
L1495955125L
L121231768L
L3642376035L
L682139425L
L3628442591L
L2908496930L
L3520543028L
L316238059L
L476986715L
L636297407L
L849499740L
L395347414L
L3517436195L
L1849992417L
L1944041972L
L3425230772L
L2095805479L
L2198266975L
L4279057091L
L35576657L
L1423952153L
L1582221890L
L1042550686L
L288566674L
L762411014L
L2694392405L
L1269447923L
L586416626L
L4169660375L
L795857783L
L2933865700L
L3947261096L
L3801443464L
L628738126L
L1127394996L
L2004091842L
L65609766L
L277434259L
L2255879117L
L3438791353L
L1220614401L
L2159381984L
L1479433625L
L4231169481L
L3311733975L
L3382481877L
L3880121300L
L3862497039L
L3645340820L
L4129470912L
L2143211840L
L180169020L
L2915321296L
L3013760655L
L319458457L
L1666519955L
L1072488057L
L4119017956L
L3065963998L
L3156524904L
L1548959907L
L1267883695L
L2858827881L
L2625989395L
L3338785263L
L1691602716L
L2126211298L
L4007673737L
L4186027339L
L3846281941L
L70982851L
L263837795L
L659126827L
L2980846218L
L192284478L
L3080459272L
L4105006353L
L1224966312L
L1667467732L
L4192844552L
L2947345608L
L1312721267L
L995387948L
L279230837L
L413447447L
L3793770271L
L39507081L
L821660310L
L1794005643L
L35589677L
L164333017L
L1880971233L
L3535746068L
L1091601157L
L4272598904L
L3030179358L
L1207804127L
L4246440144L
L44060734L
L707622306L
L3535335353L
L1109926354L
L1478596677L
L1288794273L
L1480163940L
L46632306L
L1024263904L
L3525603704L
L1158005009L
L3704447404L
L4207129671L
L3162795188L
L1764109563L
L1915386681L
L3562005320L
L837276014L
L887012411L
L1646982126L
L3997694881L
L1003924412L
L606949730L
L3028470314L
L703448649L
L1878850504L
L2180010676L
L3610946004L
L1578597952L
L2383086216L
L3262442230L
L270896879L
L3760345043L
L3673647483L
L3194484015L
L815370489L
L3180391826L
L4108166383L
L1424301908L
L1634817111L
L2112933683L
L4176915707L
L3070150981L
L3653757342L
L168271118L
L1169894375L
L1320356651L
L1768323237L
L1157127152L
L3438525973L
L2396010740L
L4040288261L
L623910253L
L1716641262L
L631969644L
L552213659L
L667069678L
L2235286461L
L2693025350L
L1460659877L
L251530665L
L3924798194L
L1358308953L
L433843275L
L1936266853L
L747480833L
L3545787415L
L3656373148L
L504L
tp391
Ntp392
sS'halloffame'
p393
g2
(cdeap.tools.support
HallOfFame
p394
g4
Ntp395
Rp396
(dp397
S'keys'
p398
(lp399
g2
(g22
g4
Ntp400
Rp401
(dp402
g26
g100
sg28
g101
sbag2
(g22
g4
Ntp403
Rp404
(dp405
g26
g100
sg28
g252
sbag2
(g22
g4
Ntp406
Rp407
(dp408
g26
g55
sg28
g56
sbag2
(g22
g4
Ntp409
Rp410
(dp411
g26
g109
sg28
g260
sbag2
(g22
g4
Ntp412
Rp413
(dp414
g26
g37
sg28
g196
sbag2
(g22
g4
Ntp415
Rp416
(dp417
g26
g37
sg28
g38
sbag2
(g22
g4
Ntp418
Rp419
(dp420
g26
g82
sg28
g236
sbag2
(g22
g4
Ntp421
Rp422
(dp423
g26
g82
sg28
g83
sbag2
(g22
g4
Ntp424
Rp425
(dp426
g26
g91
sg28
g92
sbag2
(g22
g4
Ntp427
Rp428
(dp429
g26
g91
sg28
g244
sbasS'items'
p430
(lp431
g2
(g14
g15
(lp432
F1.5605436141357414
aF4.687277761993222
aF7.3262503127993766
aF0.007111946577775828
aF0.0468220356959143
aF0.38952038461623756
atp433
Rp434
(dp435
g20
I8
sg21
g428
sbag2
(g14
g15
(lp436
F1.5605436141357414
aF3.593873779457239
aF7.3262503127993766
aF0.007111946577775828
aF0.0468220356959143
aF0.4221070577507152
atp437
Rp438
(dp439
g21
g425
sbag2
(g14
g15
(lp440
F8.4407485663607
aF5.741961497463361
aF6.566025884151478
aF0.0018591440683205878
aF0.04962717135446204
aF0.859946542800637
atp441
Rp442
(dp443
g21
g422
sbag2
(g14
g15
(lp444
F8.4407485663607
aF7.40826081394746
aF6.566025884151478
aF0.0013399332160222222
aF0.04990696731896817
aF0.9240217710462983
atp445
Rp446
(dp447
g20
I7
sg21
g419
sbag2
(g14
g15
(lp448
F6.655292538138524
aF7.9717441709009265
aF1.301052033032655
aF0.0002835719304724109
aF0.0417882716194831
aF0.4327671246283466
atp449
Rp450
(dp451
g21
g416
sbag2
(g14
g15
(lp452
F6.655292538138524
aF7.9717441709009265
aF0.4501881042402506
aF0.0031673823825556216
aF0.03534010144749427
aF0.4327671246283466
atp453
Rp454
(dp455
g20
I2
sg21
g413
sbag2
(g14
g15
(lp456
F7.725619554084025
aF6.054421676632496
aF0.7351834996752842
aF0.00507291427288525
aF0.03987023263729039
aF0.41431405786937436
atp457
Rp458
(dp459
g20
I10
sg21
g410
sbag2
(g14
g15
(lp460
F9.053703593070242
aF0.693663837122114
aF0.6442802655372237
aF0.005414170586687687
aF0.04695746422400925
aF0.3812042995677887
atp461
Rp462
(dp463
g21
g407
sbag2
(g14
g15
(lp464
F5.531786269441057
aF6.043733415461663
aF3.659080543241897
aF0.0024838513579583305
aF0.047675587365539576
aF0.8461974338085709
atp465
Rp466
(dp467
g20
I9
sg21
g404
sbag2
(g14
g15
(lp468
F8.368342655433539
aF6.834933437575082
aF3.312337704956009
aF0.0058758473033749805
aF0.0441239617936928
aF0.8461974338085709
atp469
Rp470
(dp471
g21
g401
sbasS'maxsize'
p472
I10
sS'similar'
p473
coperator
eq
p474
sbsS'population'
p475
(lp476
g333
ag293
ag323
ag2
(g14
g15
(lp477
F1.5605436141357414
aF3.593873779457239
aF7.3262503127993766
aF0.007111946577775828
aF0.0468220356959143
aF0.4221070577507152
atp478
Rp479
(dp480
g20
I18
sg267
g268
(g272
S'@\xb3\x86\x07\x02\xc5\xb8?'
p481
tp482
Rp483
sg21
g2
(g22
g4
Ntp484
Rp485
(dp486
g26
g91
sg28
g92
sbsbag283
ag313
ag265
ag303
ag2
(g14
g15
(lp487
F6.655292538138524
aF7.9717441709009265
aF0.4501881042402506
aF0.0031673823825556216
aF0.03534010144749427
aF0.4327671246283466
atp488
Rp489
(dp490
g20
I22
sg267
g268
(g272
S'\x0c\xc2\xe1\xb7\xae\t\xd2?'
p491
tp492
Rp493
sg21
g2
(g22
g4
Ntp494
Rp495
(dp496
g26
g37
sg28
g196
sbsbag2
(g14
g15
(lp497
F8.4407485663607
aF7.40826081394746
aF6.566025884151478
aF0.0013399332160222222
aF0.04990696731896817
aF0.9240217710462983
atp498
Rp499
(dp500
g20
I27
sg267
g268
(g272
S'\x84\xc9\x82\x1f\x01\xef\xd2?'
p501
tp502
Rp503
sg21
g2
(g22
g4
Ntp504
Rp505
(dp506
g26
g82
sg28
g236
sbsbag2
(g14
g15
(lp507
F2.6376107224726972
aF2.616318798793449
aF2.5002979584418106
aF0.004596088697030763
aF0.01448915175136282
aF0.02148980311693835
atp508
Rp509
(dp510
g20
I16
sg267
g268
(g272
S'\xa4yx4\xf7\x84\xd3?'
p511
tp512
Rp513
sg21
g2
(g22
g4
Ntp514
Rp515
(dp516
g26
g73
sg28
g74
sbsbag2
(g14
g15
(lp517
F8.4407485663607
aF5.741961497463361
aF6.566025884151478
aF0.0018591440683205878
aF0.04962717135446204
aF0.859946542800637
atp518
Rp519
(dp520
g20
I17
sg267
g268
(g272
S'\xa8\xfa\xa9\xb7\x13\xca\xd3?'
p521
tp522
Rp523
sg21
g2
(g22
g4
Ntp524
Rp525
(dp526
g26
g82
sg28
g83
sbsbag2
(g14
g15
(lp527
F5.250724677564164
aF6.054421676632496
aF0.7314479694528793
aF0.0024274754614333222
aF0.03987023263729039
aF0.41431405786937436
atp528
Rp529
(dp530
g20
I20
sg267
g268
(g272
S'\x00&\x8b\x15+(\xd4?'
p531
tp532
Rp533
sg21
g2
(g22
g4
Ntp534
Rp535
(dp536
g26
g109
sg28
g110
sbsbag2
(g14
g15
(lp537
F6.655292538138524
aF7.9717441709009265
aF1.301052033032655
aF0.0002835719304724109
aF0.0417882716194831
aF0.4327671246283466
atp538
Rp539
(dp540
g20
I12
sg267
g268
(g272
S'\xb8\xbe\xc2\xe6a\xdc\xd7?'
p541
tp542
Rp543
sg21
g2
(g22
g4
Ntp544
Rp545
(dp546
g26
g37
sg28
g38
sbsbag2
(g14
g15
(lp547
F7.725619554084025
aF6.054421676632496
aF0.7351834996752842
aF0.00507291427288525
aF0.03987023263729039
aF0.41431405786937436
atp548
Rp549
(dp550
g20
I30
sg267
g268
(g272
S'\xacP\xa4\xefI+\xe1?'
p551
tp552
Rp553
sg21
g2
(g22
g4
Ntp554
Rp555
(dp556
g26
g109
sg28
g260
sbsbag2
(g14
g15
(lp557
F1.2113530771076202
aF8.667674294764197
aF7.7322363421754945
aF0.00030136939163206066
aF0.024771804811088337
aF0.4494911198396317
atp558
Rp559
(dp560
g20
I21
sg267
g268
(g272
S'>\x03Z\xd1e.\xe2?'
p561
tp562
Rp563
sg21
g2
(g22
g4
Ntp564
Rp565
(dp566
g26
g27
sg28
g188
sbsbag2
(g14
g15
(lp567
F2.479354212453888
aF4.452319125594086
aF0.6787915607187323
aF0.0022169944935637232
aF0.021894435893769236
aF0.4958122918006265
atp568
Rp569
(dp570
g20
I15
sg267
g268
(g272
S'Hx\x05 \xdc\xeb\xe6?'
p571
tp572
Rp573
sg21
g2
(g22
g4
Ntp574
Rp575
(dp576
g26
g64
sg28
g65
sbsbag2
(g14
g15
(lp577
F2.479354212453888
aF4.900774189753166
aF0.6787653109162933
aF0.0022169944935637232
aF0.02669502870025975
aF0.4958122918006265
atp578
Rp579
(dp580
g20
I25
sg267
g268
(g272
S'Vv\xed\x01x\xc8\xe8?'
p581
tp582
Rp583
sg21
g2
(g22
g4
Ntp584
Rp585
(dp586
g26
g64
sg28
g220
sbsbag2
(g14
g15
(lp587
F1.6898967434790517
aF8.535363874597433
aF7.7322363421754945
aF0.002550764750491643
aF0.024771804811088337
aF0.4494911198396317
atp588
Rp589
(dp590
g20
I11
sg267
g268
(g272
S'nv<n-2\xf0?'
p591
tp592
Rp593
sg21
g2
(g22
g4
Ntp594
Rp595
(dp596
g26
g27
sg28
g29
sbsbag2
(g14
g15
(lp597
F9.053703593070242
aF0.693663837122114
aF0.6442802655372237
aF0.005414170586687687
aF0.04695746422400925
aF0.3812042995677887
atp598
Rp599
(dp600
g20
I14
sg267
g268
(g272
S'\xa0$B\xa0\xc7G\xf5?'
p601
tp602
Rp603
sg21
g2
(g22
g4
Ntp604
Rp605
(dp606
g26
g55
sg28
g56
sbsbas.