(dp0
S'history'
p1
ccopy_reg
_reconstructor
p2
(cdeap.tools.support
History
p3
c__builtin__
object
p4
Ntp5
Rp6
(dp7
S'genealogy_tree'
p8
(dp9
I1
(tsI2
(tsI3
(tsI4
(tsI5
(tsI6
(tsI7
(tsI8
(tsI9
(tsI10
(tsI11
(I1
I2
I3
I4
I5
I6
I7
I8
I9
I10
I1
I2
I3
I4
I5
I6
I7
I8
I9
I10
tp10
sI12
g10
sI13
g10
sI14
g10
sI15
g10
sI16
g10
sI17
g10
sI18
g10
sI19
g10
sI20
g10
sI21
g10
sI22
g10
sI23
g10
sI24
g10
sI25
g10
sI26
g10
sI27
g10
sI28
g10
sI29
g10
sI30
g10
sI31
(I20
I22
I29
I27
I19
I13
I28
I20
I22
I29
I20
I22
I29
I27
I19
I13
I28
I20
I22
I29
tp11
sI32
g11
sI33
g11
sI34
g11
sI35
g11
sI36
g11
sI37
g11
sI38
g11
sI39
g11
sI40
g11
sI41
g11
sI42
g11
sI43
g11
sI44
g11
sI45
g11
sI46
g11
sI47
g11
sI48
g11
sI49
g11
sI50
g11
sI51
(I44
I34
I44
I37
I43
I49
I47
I44
I49
I49
I44
I34
I44
I37
I43
I49
I47
I44
I49
I49
tp12
sI52
g12
sI53
g12
sI54
g12
sI55
g12
sI56
g12
sI57
g12
sI58
g12
sI59
g12
sI60
g12
sI61
g12
sI62
g12
sI63
g12
sI64
g12
sI65
g12
sI66
g12
sI67
g12
sI68
g12
sI69
g12
sI70
g12
sI71
(I62
I70
I55
I66
I55
I64
I64
I65
I55
I64
I62
I70
I55
I66
I55
I64
I64
I65
I55
I64
tp13
sI72
g13
sI73
g13
sI74
g13
sI75
g13
sI76
g13
sI77
g13
sI78
g13
sI79
g13
sI80
g13
sI81
g13
sI82
g13
sI83
g13
sI84
g13
sI85
g13
sI86
g13
sI87
g13
sI88
g13
sI89
g13
sI90
g13
sI91
(I87
I78
I85
I87
I85
I88
I82
I86
I74
I82
I87
I78
I85
I87
I85
I88
I82
I86
I74
I82
tp14
sI92
g14
sI93
g14
sI94
g14
sI95
g14
sI96
g14
sI97
g14
sI98
g14
sI99
g14
sI100
g14
sI101
g14
sI102
g14
sI103
g14
sI104
g14
sI105
g14
sI106
g14
sI107
g14
sI108
g14
sI109
g14
sI110
g14
sI111
(I101
I106
I104
I92
I103
I95
I106
I103
I104
I92
I101
I106
I104
I92
I103
I95
I106
I103
I104
I92
tp15
sI112
g15
sI113
g15
sI114
g15
sI115
g15
sI116
g15
sI117
g15
sI118
g15
sI119
g15
sI120
g15
sI121
g15
sI122
g15
sI123
g15
sI124
g15
sI125
g15
sI126
g15
sI127
g15
sI128
g15
sI129
g15
sI130
g15
sI131
(I123
I126
I130
I116
I123
I116
I125
I116
I129
I128
I123
I126
I130
I116
I123
I116
I125
I116
I129
I128
tp16
sI132
g16
sI133
g16
sI134
g16
sI135
g16
sI136
g16
sI137
g16
sI138
g16
sI139
g16
sI140
g16
sI141
g16
sI142
g16
sI143
g16
sI144
g16
sI145
g16
sI146
g16
sI147
g16
sI148
g16
sI149
g16
sI150
g16
ssS'genealogy_index'
p17
I150
sS'genealogy_history'
p18
(dp19
I1
g2
(cbluepyopt.deapext.optimisations
WSListIndividual
p20
c__builtin__
list
p21
(lp22
F1.6898967434790517
aF8.535363874597433
aF7.7322363421754945
aF0.002550764750491643
aF0.024771804811088337
aF0.4494911198396317
atp23
Rp24
(dp25
S'history_index'
p26
I1
sS'fitness'
p27
g2
(cbluepyopt.deapext.optimisations
WeightedSumFitness
p28
g4
Ntp29
Rp30
(dp31
S'weights'
p32
(lp33
F-1.0
aF-1.0
aF-1.0
aF-1.0
aF-1.0
aF-1.0
aF-1.0
aF-1.0
aF-1.0
aF-1.0
aF-1.0
aF-1.0
aF-1.0
asS'wvalues'
p34
(F-7.826086956521738
F-3.358089099367178
F-7.298906571398124
F-5.082508250826274
F-9.71730802338172
F-39.73735343232136
F-13.68421052631579
F-2.762694621750969
F-0.8769804211254433
F-77.86351253762268
F-3.4718523849278355
F-52.23359567262962
F-8.028792912513284
tp35
sbsbsI2
g2
(g20
g21
(lp36
F6.655292538138524
aF7.9717441709009265
aF1.301052033032655
aF0.0002835719304724109
aF0.0417882716194831
aF0.4327671246283466
atp37
Rp38
(dp39
g26
I2
sg27
g2
(g28
g4
Ntp40
Rp41
(dp42
g32
(lp43
F-1.0
aF-1.0
aF-1.0
aF-1.0
aF-1.0
aF-1.0
aF-1.0
aF-1.0
aF-1.0
aF-1.0
aF-1.0
aF-1.0
aF-1.0
asg34
(F-6.08695652173913
F-3.3581654133420544
F-6.1301334436743184
F-11.485148514854178
F-12.801842827966764
F-6.062950349098367
F-20.140350877192983
F-10.925891899003606
F-0.9145902297416454
F-13.90313550824237
F-14.05840914298896
F-35.72295145602378
F-1.3953488372088787
tp44
sbsbsI3
g2
(g20
g21
(lp45
F7.717888791596243
aF0.4202181121706627
aF4.675717062926094
aF0.007215428169404592
aF0.011438188187300505
aF0.9452707010268527
atp46
Rp47
(dp48
g26
I3
sg27
g2
(g28
g4
Ntp49
Rp50
(dp51
g32
(lp52
F-1.0
aF-1.0
aF-1.0
aF-1.0
aF-1.0
aF-1.0
aF-1.0
aF-1.0
aF-1.0
aF-1.0
aF-1.0
aF-1.0
aF-1.0
asg34
(F-19.999999999999996
F-3.356110180527285
F-250.0
F-250.0
F-250.0
F-250.0
F-250.0
F-250.0
F-0.6078043552250332
F-52.4502517362551
F-4.9882410494609974
F-250.0
F-250.0
tp53
sbsbsI4
g2
(g20
g21
(lp54
F9.053703593070242
aF0.693663837122114
aF0.6442802655372237
aF0.005414170586687687
aF0.04695746422400925
aF0.3812042995677887
atp55
Rp56
(dp57
g26
I4
sg27
g2
(g28
g4
Ntp58
Rp59
(dp60
g32
(lp61
F-1.0
aF-1.0
aF-1.0
aF-1.0
aF-1.0
aF-1.0
aF-1.0
aF-1.0
aF-1.0
aF-1.0
aF-1.0
aF-1.0
aF-1.0
asg34
(F-13.043478260869565
F-3.358445699246748
F-12.890774125132692
F-11.485148514854178
F-12.881790380026079
F-0.6906175774088764
F-336.5614035087719
F-4.539037581536114
F-0.9335881816006428
F-12.688835072116072
F-14.517785144764193
F-45.16080586507444
F-3.6240310077485565
tp62
sbsbsI5
g2
(g20
g21
(lp63
F2.479354212453888
aF4.452319125594086
aF0.6787915607187323
aF0.0022169944935637232
aF0.021894435893769236
aF0.4958122918006265
atp64
Rp65
(dp66
g26
I5
sg27
g2
(g28
g4
Ntp67
Rp68
(dp69
g32
(lp70
F-1.0
aF-1.0
aF-1.0
aF-1.0
aF-1.0
aF-1.0
aF-1.0
aF-1.0
aF-1.0
aF-1.0
aF-1.0
aF-1.0
aF-1.0
asg34
(F-18.26086956521739
F-3.3579230996210967
F-18.316085602330908
F-15.973597359739719
F-250.0
F-250.0
F-674.1754385962986
F-250.0
F-0.8536075654420034
F-3.5772241153685176
F-17.797147237131544
F-22.38765350194139
F-5.736434108531467
tp71
sbsbsI6
g2
(g20
g21
(lp72
F2.6376107224726972
aF2.616318798793449
aF2.5002979584418106
aF0.004596088697030763
aF0.01448915175136282
aF0.02148980311693835
atp73
Rp74
(dp75
g26
I6
sg27
g2
(g28
g4
Ntp76
Rp77
(dp78
g32
(lp79
F-1.0
aF-1.0
aF-1.0
aF-1.0
aF-1.0
aF-1.0
aF-1.0
aF-1.0
aF-1.0
aF-1.0
aF-1.0
aF-1.0
aF-1.0
asg34
(F-19.130434782608692
F-3.360167180765582
F-58.31775700937784
F-12.937293729375972
F-250.0
F-250.0
F-250.0
F-250.0
F-1.1281485024749918
F-15.855663852442527
F-14.40006503582725
F-38.683405333161126
F-19.224806201560757
tp80
sbsbsI7
g2
(g20
g21
(lp81
F8.4407485663607
aF5.741961497463361
aF6.566025884151478
aF0.0018591440683205878
aF0.04962717135446204
aF0.859946542800637
atp82
Rp83
(dp84
g26
I7
sg27
g2
(g28
g4
Ntp85
Rp86
(dp87
g32
(lp88
F-1.0
aF-1.0
aF-1.0
aF-1.0
aF-1.0
aF-1.0
aF-1.0
aF-1.0
aF-1.0
aF-1.0
aF-1.0
aF-1.0
aF-1.0
asg34
(F-10.43478260869565
F-3.3560574895353756
F-10.483171587858722
F-1.1221122112213853
F-7.45722605454799
F-23.017696223895907
F-29.05263157894737
F-8.896378418810826
F-0.6879036572484409
F-80.27820414939636
F-1.9362445919275728
F-68.67733347283765
F-8.978153629316822
tp89
sbsbsI8
g2
(g20
g21
(lp90
F1.5605436141357414
aF3.593873779457239
aF7.3262503127993766
aF0.007111946577775828
aF0.0468220356959143
aF0.4221070577507152
atp91
Rp92
(dp93
g26
I8
sg27
g2
(g28
g4
Ntp94
Rp95
(dp96
g32
(lp97
F-1.0
aF-1.0
aF-1.0
aF-1.0
aF-1.0
aF-1.0
aF-1.0
aF-1.0
aF-1.0
aF-1.0
aF-1.0
aF-1.0
aF-1.0
asg34
(F-3.478260869565217
F-3.3580181236709157
F-3.833891765661182
F-11.287128712873933
F-17.180492104019375
F-4.7073206083068975
F-1.7543859649122806
F-16.393043388467834
F-0.901126974069844
F-71.70589210768811
F-4.254866481818436
F-6.207916471755368
F-7.988576091391506
tp98
sbsbsI9
g2
(g20
g21
(lp99
F8.368342655433539
aF6.834933437575082
aF3.312337704956009
aF0.0058758473033749805
aF0.0441239617936928
aF0.8461974338085709
atp100
Rp101
(dp102
g26
I9
sg27
g2
(g28
g4
Ntp103
Rp104
(dp105
g32
(lp106
F-1.0
aF-1.0
aF-1.0
aF-1.0
aF-1.0
aF-1.0
aF-1.0
aF-1.0
aF-1.0
aF-1.0
aF-1.0
aF-1.0
aF-1.0
asg34
(F-10.43478260869565
F-3.3560698503607704
F-10.41489029842988
F-3.4983498349843187
F-11.517250480099847
F-7.431230772815622
F-30.24561403508772
F-3.0416351502836156
F-0.6794723192798282
F-40.677588940288516
F-7.162532056428991
F-71.38263340739401
F-11.571529245947831
tp107
sbsbsI10
g2
(g20
g21
(lp108
F5.250724677564164
aF6.054421676632496
aF0.7314479694528793
aF0.0024274754614333222
aF0.03987023263729039
aF0.41431405786937436
atp109
Rp110
(dp111
g26
I10
sg27
g2
(g28
g4
Ntp112
Rp113
(dp114
g32
(lp115
F-1.0
aF-1.0
aF-1.0
aF-1.0
aF-1.0
aF-1.0
aF-1.0
aF-1.0
aF-1.0
aF-1.0
aF-1.0
aF-1.0
aF-1.0
asg34
(F-4.3478260869565215
F-3.3582928467532445
F-4.133796150205301
F-13.993399339937275
F-8.921209442073613
F-4.817395021714575
F-13.263157894736842
F-8.510363957558218
F-0.9164706634655213
F-4.124476311064058
F-16.689234183482768
F-22.098935049585638
F-1.8690783807076334
tp116
sbsbsI11
g2
(g20
g21
(lp117
F1.6898967434790517
aF8.535363874597433
aF7.7322363421754945
aF0.002550764750491643
aF0.024771804811088337
aF0.4494911198396317
atp118
Rp119
(dp120
g26
I11
sg27
g2
(g28
g4
Ntp121
Rp122
(dp123
g32
g33
sg34
g35
sbsbsI12
g2
(g20
g21
(lp124
F6.655292538138524
aF7.9717441709009265
aF1.301052033032655
aF0.0002835719304724109
aF0.0417882716194831
aF0.4327671246283466
atp125
Rp126
(dp127
g26
I12
sg27
g2
(g28
g4
Ntp128
Rp129
(dp130
g32
g43
sg34
g44
sbsbsI13
g2
(g20
g21
(lp131
F7.717888791596243
aF0.4202181121706627
aF4.675717062926094
aF0.007215428169404592
aF0.011438188187300505
aF0.9452707010268527
atp132
Rp133
(dp134
g26
I13
sg27
g2
(g28
g4
Ntp135
Rp136
(dp137
g32
g52
sg34
g53
sbsbsI14
g2
(g20
g21
(lp138
F9.053703593070242
aF0.693663837122114
aF0.6442802655372237
aF0.005414170586687687
aF0.04695746422400925
aF0.3812042995677887
atp139
Rp140
(dp141
g26
I14
sg27
g2
(g28
g4
Ntp142
Rp143
(dp144
g32
g61
sg34
g62
sbsbsI15
g2
(g20
g21
(lp145
F2.479354212453888
aF4.452319125594086
aF0.6787915607187323
aF0.0022169944935637232
aF0.021894435893769236
aF0.4958122918006265
atp146
Rp147
(dp148
g26
I15
sg27
g2
(g28
g4
Ntp149
Rp150
(dp151
g32
g70
sg34
g71
sbsbsI16
g2
(g20
g21
(lp152
F2.6376107224726972
aF2.616318798793449
aF2.5002979584418106
aF0.004596088697030763
aF0.01448915175136282
aF0.02148980311693835
atp153
Rp154
(dp155
g26
I16
sg27
g2
(g28
g4
Ntp156
Rp157
(dp158
g32
g79
sg34
g80
sbsbsI17
g2
(g20
g21
(lp159
F8.4407485663607
aF5.741961497463361
aF6.566025884151478
aF0.0018591440683205878
aF0.04962717135446204
aF0.859946542800637
atp160
Rp161
(dp162
g26
I17
sg27
g2
(g28
g4
Ntp163
Rp164
(dp165
g32
g88
sg34
g89
sbsbsI18
g2
(g20
g21
(lp166
F1.5605436141357414
aF3.593873779457239
aF7.3262503127993766
aF0.007111946577775828
aF0.0468220356959143
aF0.4221070577507152
atp167
Rp168
(dp169
g26
I18
sg27
g2
(g28
g4
Ntp170
Rp171
(dp172
g32
g97
sg34
g98
sbsbsI19
g2
(g20
g21
(lp173
F8.368342655433539
aF6.834933437575082
aF3.312337704956009
aF0.0058758473033749805
aF0.0441239617936928
aF0.8461974338085709
atp174
Rp175
(dp176
g26
I19
sg27
g2
(g28
g4
Ntp177
Rp178
(dp179
g32
g106
sg34
g107
sbsbsI20
g2
(g20
g21
(lp180
F5.250724677564164
aF6.054421676632496
aF0.7314479694528793
aF0.0024274754614333222
aF0.03987023263729039
aF0.41431405786937436
atp181
Rp182
(dp183
g26
I20
sg27
g2
(g28
g4
Ntp184
Rp185
(dp186
g32
g115
sg34
g116
sbsbsI21
g2
(g20
g21
(lp187
F1.2113530771076202
aF8.667674294764197
aF7.7322363421754945
aF0.00030136939163206066
aF0.024771804811088337
aF0.4494911198396317
atp188
Rp189
(dp190
g26
I21
sg27
g2
(g28
g4
Ntp191
Rp192
(dp193
g32
g33
sg34
(F-6.08695652173913
F-3.357943095852767
F-6.056572379367747
F-5.874587458747252
F-7.738101313945508
F-42.93070802696763
F-14.035087719298245
F-1.4003576467162473
F-0.8825450882035683
F-76.37364816245817
F-3.6852087117938264
F-40.446305066452645
F-9.3023255813948
tp194
sbsbsI22
g2
(g20
g21
(lp195
F6.655292538138524
aF7.9717441709009265
aF0.4501881042402506
aF0.0031673823825556216
aF0.03534010144749427
aF0.4327671246283466
atp196
Rp197
(dp198
g26
I22
sg27
g2
(g28
g4
Ntp199
Rp200
(dp201
g32
g43
sg34
(F-2.6086956521739126
F-3.358236015800484
F-2.7252112966397655
F-13.33333333333646
F-10.961578541088034
F-1.2409342068502491
F-9.263157894736842
F-10.447813410259942
F-0.8987857388202196
F-5.437459678242858
F-16.33937312200661
F-50.083990855295895
F-1.976744186047228
tp202
sbsbsI23
g2
(g20
g21
(lp203
F7.955812274430505
aF0.4202181121706627
aF4.162651970372639
aF0.007215428169404592
aF0.011221296925742794
aF0.7029878043989166
atp204
Rp205
(dp206
g26
I23
sg27
g2
(g28
g4
Ntp207
Rp208
(dp209
g32
g52
sg34
(F-19.999999999999996
F-3.35670951811226
F-250.0
F-250.0
F-250.0
F-250.0
F-250.0
F-250.0
F-0.7219145024876327
F-48.42542105944127
F-6.003024392863222
F-250.0
F-250.0
tp210
sbsbsI24
g2
(g20
g21
(lp211
F7.0526400668387605
aF1.9989749978238982
aF0.6442802655372237
aF0.005627364775620524
aF0.045167411721541095
aF0.1285849460744397
atp212
Rp213
(dp214
g26
I24
sg27
g2
(g28
g4
Ntp215
Rp216
(dp217
g32
g61
sg34
(F-6.08695652173913
F-3.3596989489747577
F-6.021684737281124
F-13.531353135316705
F-11.037369618642009
F-3.5833629244293728
F-24.63157894736842
F-28.228157688205293
F-1.0927963507965897
F-7.136309758691068
F-16.429800211539025
F-21.841694160559474
F-9.418604651162461
tp218
sbsbsI25
g2
(g20
g21
(lp219
F2.479354212453888
aF4.900774189753166
aF0.6787653109162933
aF0.0022169944935637232
aF0.02669502870025975
aF0.4958122918006265
atp220
Rp221
(dp222
g26
I25
sg27
g2
(g28
g4
Ntp223
Rp224
(dp225
g32
g70
sg34
(F-17.391304347826086
F-3.35789335307834
F-16.24944054900882
F-16.105610561059883
F-250.0
F-1.0345314163214443
F-415.0877192982456
F-250.0
F-0.8577555330239468
F-3.4869439880387416
F-17.805960023622863
F-12.140325925397862
F-8.113695090436133
tp226
sbsbsI26
g2
(g20
g21
(lp227
F2.940299655623448
aF2.7588240998593214
aF2.7640098748139708
aF0.004138954115171498
aF0.02169187720542049
aF0.02148980311693835
atp228
Rp229
(dp230
g26
I26
sg27
g2
(g28
g4
Ntp231
Rp232
(dp233
g32
g79
sg34
(F-19.130434782608692
F-3.360232374505823
F-60.57692307695759
F-13.135313531356216
F-250.0
F-250.0
F-250.0
F-250.0
F-1.1399339968539917
F-21.486979648340828
F-13.454721424744207
F-22.52357761828525
F-22.790697674429918
tp234
sbsbsI27
g2
(g20
g21
(lp235
F8.4407485663607
aF7.40826081394746
aF6.566025884151478
aF0.0013399332160222222
aF0.04990696731896817
aF0.9240217710462983
atp236
Rp237
(dp238
g26
I27
sg27
g2
(g28
g4
Ntp239
Rp240
(dp241
g32
g88
sg34
(F-10.43478260869565
F-3.3557867255147373
F-9.960792855587455
F-2.310231023102852
F-3.967840484881576
F-24.748888130093743
F-25.54385964912281
F-11.241634867142603
F-0.6569782395528629
F-80.43982099242204
F-1.8565042130139844
F-69.26959709240205
F-10.274841437631038
tp242
sbsbsI28
g2
(g20
g21
(lp243
F1.5605436141357414
aF4.687277761993222
aF7.3262503127993766
aF0.007111946577775828
aF0.0468220356959143
aF0.38952038461623756
atp244
Rp245
(dp246
g26
I28
sg27
g2
(g28
g4
Ntp247
Rp248
(dp249
g32
g97
sg34
(F-0.8695652173913042
F-3.3585372781926304
F-0.787828261775811
F-11.61716171617434
F-11.00587713238151
F-1.9051970871361164
F-6.947368421052632
F-9.342832919849494
F-0.9206984884583639
F-71.88999142486556
F-4.257016628891486
F-9.952268002814641
F-7.681465821000578
tp250
sbsbsI29
g2
(g20
g21
(lp251
F5.531786269441057
aF6.043733415461663
aF3.659080543241897
aF0.0024838513579583305
aF0.047675587365539576
aF0.8461974338085709
atp252
Rp253
(dp254
g26
I29
sg27
g2
(g28
g4
Ntp255
Rp256
(dp257
g32
g106
sg34
(F-10.43478260869565
F-3.356033539945667
F-10.448658170137797
F-7.458745874589208
F-15.974875278781907
F-6.516728233250898
F-38.94736842105263
F-11.279334801636047
F-0.6921090221116925
F-35.820059890512965
F-8.170761420347585
F-40.77637836759628
F-4.439746300212093
tp258
sbsbsI30
g2
(g20
g21
(lp259
F7.725619554084025
aF6.054421676632496
aF0.7351834996752842
aF0.00507291427288525
aF0.03987023263729039
aF0.41431405786937436
atp260
Rp261
(dp262
g26
I30
sg27
g2
(g28
g4
Ntp263
Rp264
(dp265
g32
g115
sg34
(F-5.217391304347825
F-3.3583218548538016
F-5.117007939824575
F-11.815181518154585
F-15.825092468889986
F-0.705413510826933
F-18.45614035087719
F-15.271727616514992
F-0.9077659668434568
F-10.108360535080378
F-14.947025246477011
F-48.34346454958332
F-1.5777473780210924
tp266
sbsbsI31
g2
(g20
g21
(lp267
F5.250724677564164
aF6.054421676632496
aF0.7314479694528793
aF0.0024274754614333222
aF0.03987023263729039
aF0.41431405786937436
atp268
Rp269
(dp270
g26
I31
sS'ibea_fitness'
p271
cnumpy.core.multiarray
scalar
p272
(cnumpy
dtype
p273
(S'f8'
p274
I0
I1
tp275
Rp276
(I3
S'<'
p277
NNNI-1
I-1
I0
tp278
bS'\x04\x99\xba3\xd7\x06\xd3?'
p279
tp280
Rp281
sg27
g2
(g28
g4
Ntp282
Rp283
(dp284
g32
g115
sg34
g116
sbsbsI32
g2
(g20
g21
(lp285
F6.655292538138524
aF7.9717441709009265
aF0.4501881042402506
aF0.0031673823825556216
aF0.03534010144749427
aF0.4327671246283466
atp286
Rp287
(dp288
g26
I32
sg271
g272
(g276
S'\xecFasbT\xd0?'
p289
tp290
Rp291
sg27
g2
(g28
g4
Ntp292
Rp293
(dp294
g32
g43
sg34
g202
sbsbsI33
g2
(g20
g21
(lp295
F5.531786269441057
aF6.043733415461663
aF3.659080543241897
aF0.0024838513579583305
aF0.047675587365539576
aF0.8461974338085709
atp296
Rp297
(dp298
g26
I33
sg271
g272
(g276
S'\xd0d^\x02\x1a\xe0\xb4?'
p299
tp300
Rp301
sg27
g2
(g28
g4
Ntp302
Rp303
(dp304
g32
g106
sg34
g258
sbsbsI34
g2
(g20
g21
(lp305
F8.4407485663607
aF7.40826081394746
aF6.566025884151478
aF0.0013399332160222222
aF0.04990696731896817
aF0.9240217710462983
atp306
Rp307
(dp308
g26
I34
sg271
g272
(g276
S'\x08\xa6%\xcf\x9e\x0b\xd3?'
p309
tp310
Rp311
sg27
g2
(g28
g4
Ntp312
Rp313
(dp314
g32
g88
sg34
g242
sbsbsI35
g2
(g20
g21
(lp315
F8.368342655433539
aF6.834933437575082
aF3.312337704956009
aF0.0058758473033749805
aF0.0441239617936928
aF0.8461974338085709
atp316
Rp317
(dp318
g26
I35
sg271
g272
(g276
S'0\xe7+\x97\x9e\x1c\xd2?'
p319
tp320
Rp321
sg27
g2
(g28
g4
Ntp322
Rp323
(dp324
g32
g106
sg34
g107
sbsbsI36
g2
(g20
g21
(lp325
F7.717888791596243
aF0.4202181121706627
aF4.675717062926094
aF0.007215428169404592
aF0.011438188187300505
aF0.9452707010268527
atp326
Rp327
(dp328
g26
I36
sg271
g272
(g276
S'\x90\xb0\x8f\xfbud\xb9?'
p329
tp330
Rp331
sg27
g2
(g28
g4
Ntp332
Rp333
(dp334
g32
g52
sg34
g53
sbsbsI37
g2
(g20
g21
(lp335
F1.5605436141357414
aF4.687277761993222
aF7.3262503127993766
aF0.007111946577775828
aF0.0468220356959143
aF0.38952038461623756
atp336
Rp337
(dp338
g26
I37
sg271
g272
(g276
S'px+j.\x10\xb2?'
p339
tp340
Rp341
sg27
g2
(g28
g4
Ntp342
Rp343
(dp344
g32
g97
sg34
g250
sbsbsI38
g2
(g20
g21
(lp345
F5.250724677564164
aF6.054421676632496
aF0.7314479694528793
aF0.0024274754614333222
aF0.03987023263729039
aF0.41431405786937436
atp346
Rp347
(dp348
g26
I38
sg271
g272
(g276
S'\x04\x99\xba3\xd7\x06\xd3?'
p349
tp350
Rp351
sg27
g2
(g28
g4
Ntp352
Rp353
(dp354
g32
g115
sg34
g116
sbsbsI39
g2
(g20
g21
(lp355
F6.655292538138524
aF7.9717441709009265
aF0.4501881042402506
aF0.0031673823825556216
aF0.03534010144749427
aF0.4327671246283466
atp356
Rp357
(dp358
g26
I39
sg271
g272
(g276
S'\xecFasbT\xd0?'
p359
tp360
Rp361
sg27
g2
(g28
g4
Ntp362
Rp363
(dp364
g32
g43
sg34
g202
sbsbsI40
g2
(g20
g21
(lp365
F5.531786269441057
aF6.043733415461663
aF3.659080543241897
aF0.0024838513579583305
aF0.047675587365539576
aF0.8461974338085709
atp366
Rp367
(dp368
g26
I40
sg271
g272
(g276
S'\xd0d^\x02\x1a\xe0\xb4?'
p369
tp370
Rp371
sg27
g2
(g28
g4
Ntp372
Rp373
(dp374
g32
g106
sg34
g258
sbsbsI41
g2
(g20
g21
(lp375
F5.287396094098518
aF4.535165195284498
aF0.7368783222039659
aF0.003987395964271889
aF0.04531695112212308
aF0.4321536528937817
atp376
Rp377
(dp378
g26
I41
sg271
g272
(g276
S'\x04\x99\xba3\xd7\x06\xd3?'
p379
tp380
Rp381
sg27
g2
(g28
g4
Ntp382
Rp383
(dp384
g32
g115
sg34
(F-10.43478260869565
F-3.3581261201536337
F-10.38389317755064
F-14.125412541257438
F-11.281791894011473
F-3.7507485753989607
F-316.3508771929824
F-5.120694069854217
F-0.9065027624061405
F-3.9519020352943075
F-16.678639260336556
F-12.631349126311846
F-2.029598308668564
tp385
sbsbsI42
g2
(g20
g21
(lp386
F8.369768231412849
aF8.577600252325706
aF0.44521933609156583
aF0.0023745729536793253
aF0.027878417689267944
aF0.41518776729896173
atp387
Rp388
(dp389
g26
I42
sg271
g272
(g276
S'\xecFasbT\xd0?'
p390
tp391
Rp392
sg27
g2
(g28
g4
Ntp393
Rp394
(dp395
g32
g43
sg34
(F-19.999999999999996
F-3.3583261085226517
F-250.0
F-250.0
F-250.0
F-250.0
F-250.0
F-250.0
F-0.9041179056832378
F-9.95155096617896
F-15.136555932643194
F-250.0
F-250.0
tp396
sbsbsI43
g2
(g20
g21
(lp397
F9.519618271003
aF7.4236118562511795
aF3.2721069793135973
aF0.0024495841886588467
aF0.0499104720648511
aF0.9379084586487689
atp398
Rp399
(dp400
g26
I43
sg271
g272
(g276
S'\xd0d^\x02\x1a\xe0\xb4?'
p401
tp402
Rp403
sg27
g2
(g28
g4
Ntp404
Rp405
(dp406
g32
g106
sg34
(F-10.43478260869565
F-3.35558643754378
F-10.624491456468508
F-2.3762376237629335
F-12.364062983514536
F-7.211651425052911
F-31.36842105263158
F-3.471806401720296
F-0.6489640782348526
F-42.52911250052793
F-6.485893010535121
F-69.399373373534
F-8.978153629316822
tp407
sbsbsI44
g2
(g20
g21
(lp408
F5.285098840438438
aF7.40826081394746
aF6.440565054780535
aF0.0018718434012724562
aF0.04763820254993244
aF0.6623363588637032
atp409
Rp410
(dp411
g26
I44
sg271
g272
(g276
S'\x08\xa6%\xcf\x9e\x0b\xd3?'
p412
tp413
Rp414
sg27
g2
(g28
g4
Ntp415
Rp416
(dp417
g32
g88
sg34
(F-7.826086956521738
F-3.3574117922074027
F-8.1829170024171
F-5.082508250826274
F-11.52305230133919
F-30.595340526800154
F-20.49122807017544
F-4.886954558527005
F-0.7853291265618476
F-70.46535120893081
F-3.5358039382138267
F-39.88989529528967
F-2.4252491694360705
tp418
sbsbsI45
g2
(g20
g21
(lp419
F8.35480988774027
aF6.834933437575082
aF3.312337704956009
aF0.0058758473033749805
aF0.011641122449285984
aF0.7878105910806611
atp420
Rp421
(dp422
g26
I45
sg271
g272
(g276
S'0\xe7+\x97\x9e\x1c\xd2?'
p423
tp424
Rp425
sg27
g2
(g28
g4
Ntp426
Rp427
(dp428
g32
g106
sg34
(F-19.999999999999996
F-3.356224469077525
F-250.0
F-250.0
F-250.0
F-250.0
F-250.0
F-250.0
F-0.6845636889841481
F-39.09962409177058
F-7.178418945346648
F-250.0
F-250.0
tp429
sbsbsI46
g2
(g20
g21
(lp430
F7.731421559251656
aF0.5521563077063796
aF4.3818147630273
aF0.006032181229280915
aF0.04626583222857148
aF0.9254300065852167
atp431
Rp432
(dp433
g26
I46
sg271
g272
(g276
S'\x90\xb0\x8f\xfbud\xb9?'
p434
tp435
Rp436
sg27
g2
(g28
g4
Ntp437
Rp438
(dp439
g32
g52
sg34
(F-18.26086956521739
F-3.3557838530081976
F-17.159803423149306
F-2.2442244224427705
F-250.0
F-250.0
F-375.2280701754386
F-250.0
F-0.6430602092210383
F-49.28532323317476
F-5.565724805500232
F-63.345528686814376
F-7.51937984495794
tp440
sbsbsI47
g2
(g20
g21
(lp441
F0.435124926205648
aF4.687277761993222
aF7.352134332385012
aF0.0067555533677820905
aF0.047781118560259066
aF0.38910512111800555
atp442
Rp443
(dp444
g26
I47
sg271
g272
(g276
S'px+j.\x10\xb2?'
p445
tp446
Rp447
sg27
g2
(g28
g4
Ntp448
Rp449
(dp450
g32
g97
sg34
(F-7.826086956521738
F-3.3588758153054235
F-7.64251108133198
F-13.33333333333646
F-8.82196144099533
F-6.889301962893541
F-11.43859649122807
F-8.817737767459828
F-0.9235345027518308
F-69.03947622274342
F-4.738833282053974
F-23.65457254567802
F-10.082364341085174
tp451
sbsbsI48
g2
(g20
g21
(lp452
F5.2130535382025975
aF5.887475377562374
aF0.7647474999219255
aF0.0027838917153490427
aF0.03987023263729039
aF0.44573473547869047
atp453
Rp454
(dp455
g26
I48
sg271
g272
(g276
S'\x04\x99\xba3\xd7\x06\xd3?'
p456
tp457
Rp458
sg27
g2
(g28
g4
Ntp459
Rp460
(dp461
g32
g115
sg34
(F-4.3478260869565215
F-3.3581186111398447
F-4.67540384029231
F-13.861386138617112
F-8.98827724396046
F-5.339156376313993
F-14.385964912280702
F-8.860893133276553
F-0.8970324258296527
F-4.449089068263898
F-16.578228227254318
F-22.30410210452794
F-1.9552110249786603
tp462
sbsbsI49
g2
(g20
g21
(lp463
F6.651341212959298
aF5.934078615045186
aF1.2089485545177419
aF0.0031673823825556216
aF0.03744295188163692
aF0.7939987916867577
atp464
Rp465
(dp466
g26
I49
sg271
g272
(g276
S'\xecFasbT\xd0?'
p467
tp468
Rp469
sg27
g2
(g28
g4
Ntp470
Rp471
(dp472
g32
g43
sg34
(F-17.391304347826086
F-3.3563036044780996
F-16.748156771440364
F-10.165016501652548
F-250.0
F-7.375310268131884
F-465.26315789473676
F-250.0
F-0.7080816117870037
F-13.318794943339924
F-13.814421613610874
F-52.03079316245905
F-4.547803617572378
tp473
sbsbsI50
g2
(g20
g21
(lp474
F5.556185592854555
aF8.081397922032144
aF3.6014378117289683
aF0.0024838513579583305
aF0.047675587365539576
aF0.48495031699889424
atp475
Rp476
(dp477
g26
I50
sg271
g272
(g276
S'\xd0d^\x02\x1a\xe0\xb4?'
p478
tp479
Rp480
sg27
g2
(g28
g4
Ntp481
Rp482
(dp483
g32
g106
sg34
(F-7.826086956521738
F-3.3579129073644447
F-8.178153970173016
F-9.636963696371897
F-16.633605471907398
F-14.038995393266584
F-29.05263157894737
F-15.381514681872515
F-0.8831304155082044
F-35.7482318273529
F-8.645311196640856
F-30.763630958609998
F-1.5614617940196038
tp484
sbsbsI51
g2
(g20
g21
(lp485
F5.285098840438438
aF7.40826081394746
aF6.440565054780535
aF0.0018718434012724562
aF0.04763820254993244
aF0.6623363588637032
atp486
Rp487
(dp488
g26
I51
sg271
g272
(g276
S'\x90a)])\xcb\xb8?'
p489
tp490
Rp491
sg27
g2
(g28
g4
Ntp492
Rp493
(dp494
g32
g88
sg34
g418
sbsbsI52
g2
(g20
g21
(lp495
F8.4407485663607
aF7.40826081394746
aF6.566025884151478
aF0.0013399332160222222
aF0.04990696731896817
aF0.9240217710462983
atp496
Rp497
(dp498
g26
I52
sg271
g272
(g276
S'\x00p\xc4\xf1^\rj?'
p499
tp500
Rp501
sg27
g2
(g28
g4
Ntp502
Rp503
(dp504
g32
g88
sg34
g242
sbsbsI53
g2
(g20
g21
(lp505
F5.285098840438438
aF7.40826081394746
aF6.440565054780535
aF0.0018718434012724562
aF0.04763820254993244
aF0.6623363588637032
atp506
Rp507
(dp508
g26
I53
sg271
g272
(g276
S'\x90a)])\xcb\xb8?'
p509
tp510
Rp511
sg27
g2
(g28
g4
Ntp512
Rp513
(dp514
g32
g88
sg34
g418
sbsbsI54
g2
(g20
g21
(lp515
F1.5605436141357414
aF4.687277761993222
aF7.3262503127993766
aF0.007111946577775828
aF0.0468220356959143
aF0.38952038461623756
atp516
Rp517
(dp518
g26
I54
sg271
g272
(g276
S'\x00R\xfeE\x84\xecb?'
p519
tp520
Rp521
sg27
g2
(g28
g4
Ntp522
Rp523
(dp524
g32
g97
sg34
g250
sbsbsI55
g2
(g20
g21
(lp525
F9.519618271003
aF7.4236118562511795
aF3.2721069793135973
aF0.0024495841886588467
aF0.0499104720648511
aF0.9379084586487689
atp526
Rp527
(dp528
g26
I55
sg271
g272
(g276
S'\xc8\xb1-\x91\x12m\xc7?'
p529
tp530
Rp531
sg27
g2
(g28
g4
Ntp532
Rp533
(dp534
g32
g106
sg34
g407
sbsbsI56
g2
(g20
g21
(lp535
F6.651341212959298
aF5.934078615045186
aF1.2089485545177419
aF0.0031673823825556216
aF0.03744295188163692
aF0.7939987916867577
atp536
Rp537
(dp538
g26
I56
sg271
g272
(g276
S"\x00\x98Q\xd7\xfa'|?"
p539
tp540
Rp541
sg27
g2
(g28
g4
Ntp542
Rp543
(dp544
g32
g43
sg34
g473
sbsbsI57
g2
(g20
g21
(lp545
F0.435124926205648
aF4.687277761993222
aF7.352134332385012
aF0.0067555533677820905
aF0.047781118560259066
aF0.38910512111800555
atp546
Rp547
(dp548
g26
I57
sg271
g272
(g276
S'\x8e\xb1\x99\x04\x1d\xc2\xe6?'
p549
tp550
Rp551
sg27
g2
(g28
g4
Ntp552
Rp553
(dp554
g32
g97
sg34
g451
sbsbsI58
g2
(g20
g21
(lp555
F5.285098840438438
aF7.40826081394746
aF6.440565054780535
aF0.0018718434012724562
aF0.04763820254993244
aF0.6623363588637032
atp556
Rp557
(dp558
g26
I58
sg271
g272
(g276
S'\x90a)])\xcb\xb8?'
p559
tp560
Rp561
sg27
g2
(g28
g4
Ntp562
Rp563
(dp564
g32
g88
sg34
g418
sbsbsI59
g2
(g20
g21
(lp565
F6.651341212959298
aF5.934078615045186
aF1.2089485545177419
aF0.0031673823825556216
aF0.03744295188163692
aF0.7939987916867577
atp566
Rp567
(dp568
g26
I59
sg271
g272
(g276
S"\x00\x98Q\xd7\xfa'|?"
p569
tp570
Rp571
sg27
g2
(g28
g4
Ntp572
Rp573
(dp574
g32
g43
sg34
g473
sbsbsI60
g2
(g20
g21
(lp575
F6.651341212959298
aF5.934078615045186
aF1.2089485545177419
aF0.0031673823825556216
aF0.03744295188163692
aF0.7939987916867577
atp576
Rp577
(dp578
g26
I60
sg271
g272
(g276
S"\x00\x98Q\xd7\xfa'|?"
p579
tp580
Rp581
sg27
g2
(g28
g4
Ntp582
Rp583
(dp584
g32
g43
sg34
g473
sbsbsI61
g2
(g20
g21
(lp585
F8.542994594654793
aF7.40826081394746
aF6.4562644777145515
aF0.0018718434012724562
aF0.04908605217074303
aF0.7271398574390459
atp586
Rp587
(dp588
g26
I61
sg271
g272
(g276
S'\x90a)])\xcb\xb8?'
p589
tp590
Rp591
sg27
g2
(g28
g4
Ntp592
Rp593
(dp594
g32
g88
sg34
(F-9.565217391304346
F-3.3568218280458466
F-9.332767582476075
F-0.3960396039604889
F-9.64993487600258
F-29.472413373226022
F-24.140350877192983
F-0.689698836019151
F-0.7522516755808378
F-79.26979092381868
F-2.085447080115376
F-67.05889899150581
F-6.627906976744028
tp595
sbsbsI62
g2
(g20
g21
(lp596
F4.288155105589568
aF7.40826081394746
aF6.5503264612174625
aF2.126482042352361e-05
aF0.04918283096932478
aF0.9691758053422892
atp597
Rp598
(dp599
g26
I62
sg271
g272
(g276
S'\x00p\xc4\xf1^\rj?'
p600
tp601
Rp602
sg27
g2
(g28
g4
Ntp603
Rp604
(dp605
g32
g88
sg34
(F-8.695652173913043
F-3.3561757937982284
F-8.828958162428103
F-3.366336633664156
F-0.21656356457582263
F-9.523211846062596
F-14.666666666666666
F-13.49778195821682
F-0.6406914458185865
F-68.93244607291989
F-3.569761907510311
F-33.67211299091654
F-6.285032796660819
tp606
sbsbsI63
g2
(g20
g21
(lp607
F5.285098840438438
aF4.629517206133956
aF6.440565054780535
aF0.002468190171682158
aF0.04763820254993244
aF0.3732058454125504
atp608
Rp609
(dp610
g26
I63
sg271
g272
(g276
S'\x90a)])\xcb\xb8?'
p611
tp612
Rp613
sg27
g2
(g28
g4
Ntp614
Rp615
(dp616
g32
g88
sg34
(F-8.695652173913043
F-3.3584087142339225
F-9.060052219320838
F-7.788778877889615
F-16.728313602888
F-29.169337898587013
F-40.21052631578947
F-25.51083374644367
F-0.9468370061993427
F-69.65144163068398
F-3.8810082106559958
F-32.720969879044326
F-1.3953488372074754
tp617
sbsbsI64
g2
(g20
g21
(lp618
F1.8180701060796762
aF7.466020272083162
aF7.3262503127993766
aF0.007111946577775828
aF0.0468220356959143
aF0.678650866699403
atp619
Rp620
(dp621
g26
I64
sg271
g272
(g276
S'\x00R\xfeE\x84\xecb?'
p622
tp623
Rp624
sg27
g2
(g28
g4
Ntp625
Rp626
(dp627
g32
g97
sg34
(F-1.7391304347826084
F-3.356841296451596
F-1.6896159022673594
F-8.514851485150512
F-2.6396083775450894
F-2.0087772319237067
F-9.192982456140351
F-6.910351984622877
F-0.760942148965913
F-72.06678517429715
F-3.7857637754027826
F-2.36376922725516
F-9.444961240309713
tp628
sbsbsI65
g2
(g20
g21
(lp629
F9.445152540157759
aF6.883926577311594
aF1.1431922106954873
aF0.0024495841886588467
aF0.0499104720648511
aF0.974573323409414
atp630
Rp631
(dp632
g26
I65
sg271
g272
(g276
S'\xc8\xb1-\x91\x12m\xc7?'
p633
tp634
Rp635
sg27
g2
(g28
g4
Ntp636
Rp637
(dp638
g32
g106
sg34
(F-15.652173913043477
F-3.3554046501116233
F-14.804711717297852
F-7.458745874589208
F-142.73631828828056
F-9.551381173844874
F-208.4210526315789
F-16.509744705888185
F-0.6326015294989216
F-18.750704721002215
F-11.689893338153109
F-55.2004099605841
F-2.883720930232086
tp639
sbsbsI66
g2
(g20
g21
(lp640
F4.841903842282234
aF5.934078615045186
aF3.338115897302372
aF0.0028666976117597246
aF0.03744295188163692
aF0.795205530551263
atp641
Rp642
(dp643
g26
I66
sg271
g272
(g276
S"\x00\x98Q\xd7\xfa'|?"
p644
tp645
Rp646
sg27
g2
(g28
g4
Ntp647
Rp648
(dp649
g32
g43
sg34
(F-15.652173913043477
F-3.35634039611129
F-14.423742347619148
F-7.7227722772295335
F-159.11499180608993
F-10.091445098158351
F-56.49122807017544
F-61.425663448092465
F-0.7085231190984319
F-30.6438609669681
F-9.379695775852426
F-54.1685640170254
F-6.449612403097191
tp650
sbsbsI67
g2
(g20
g21
(lp651
F0.435124926205648
aF5.092527651800856
aF7.352386469349715
aF0.0059880107852572535
aF0.04778032663168541
aF0.2351439897760876
atp652
Rp653
(dp654
g26
I67
sg271
g272
(g276
S'\x8e\xb1\x99\x04\x1d\xc2\xe6?'
p655
tp656
Rp657
sg27
g2
(g28
g4
Ntp658
Rp659
(dp660
g32
g97
sg34
(F-10.43478260869565
F-3.359504295465909
F-9.882832399389166
F-14.125412541257438
F-9.765281104872315
F-9.155125742028039
F-12.0
F-9.25792747330352
F-1.0210815259748531
F-69.20628682751658
F-4.912824367452848
F-32.63744547081999
F-8.589147286821575
tp661
sbsbsI68
g2
(g20
g21
(lp662
F5.285098840438438
aF7.427935924675775
aF6.440312917801464
aF0.0021986324953561895
aF0.047638994478506086
aF0.6595747343142409
atp663
Rp664
(dp665
g26
I68
sg271
g272
(g276
S'\x90a)])\xcb\xb8?'
p666
tp667
Rp668
sg27
g2
(g28
g4
Ntp669
Rp670
(dp671
g32
g88
sg34
(F-7.826086956521738
F-3.357374233727414
F-8.156672723601574
F-5.082508250826274
F-10.926490321315733
F-31.102533354329324
F-20.42105263157895
F-4.781297557657715
F-0.7857483329644886
F-69.2559576287514
F-3.536676876307478
F-39.93441824882424
F-2.679955703210991
tp672
sbsbsI69
g2
(g20
g21
(lp673
F6.651341212959298
aF6.046766722427825
aF1.9360639708995842
aF0.0031673823825556216
aF0.03389133526036354
aF0.7939987916867577
atp674
Rp675
(dp676
g26
I69
sg271
g272
(g276
S"\x00\x98Q\xd7\xfa'|?"
p677
tp678
Rp679
sg27
g2
(g28
g4
Ntp680
Rp681
(dp682
g32
g43
sg34
(F-18.26086956521739
F-3.356339353429291
F-18.096103601045254
F-7.7227722772295335
F-250.0
F-250.0
F-584.701754385864
F-250.0
F-0.7051523618473962
F-20.954103487587588
F-11.762512938243463
F-61.660790071803845
F-3.9534883720968876
tp683
sbsbsI70
g2
(g20
g21
(lp684
F6.651341212959298
aF7.229228651950876
aF1.2089485545177419
aF0.0030370286694117905
aF0.03744295188163692
aF0.7939987916867577
atp685
Rp686
(dp687
g26
I70
sg271
g272
(g276
S"\x00\x98Q\xd7\xfa'|?"
p688
tp689
Rp690
sg27
g2
(g28
g4
Ntp691
Rp692
(dp693
g32
g43
sg34
(F-17.391304347826086
F-3.3563056618203384
F-15.170956588552833
F-10.165016501652548
F-250.0
F-5.727681269231732
F-293.4736842105263
F-250.0
F-0.708613669649583
F-13.519103777973436
F-13.758163157499032
F-51.47427034762475
F-3.3591731266105866
tp694
sbsbsI71
g2
(g20
g21
(lp695
F4.288155105589568
aF7.40826081394746
aF6.5503264612174625
aF2.126482042352361e-05
aF0.04918283096932478
aF0.9691758053422892
atp696
Rp697
(dp698
g26
I71
sg271
g272
(g276
S'\x00\xdej\xea\xf9_h?'
p699
tp700
Rp701
sg27
g2
(g28
g4
Ntp702
Rp703
(dp704
g32
g88
sg34
g606
sbsbsI72
g2
(g20
g21
(lp705
F6.651341212959298
aF7.229228651950876
aF1.2089485545177419
aF0.0030370286694117905
aF0.03744295188163692
aF0.7939987916867577
atp706
Rp707
(dp708
g26
I72
sg271
g272
(g276
S'\xb8\x0f\xea\xe6\xcc\r\xcc?'
p709
tp710
Rp711
sg27
g2
(g28
g4
Ntp712
Rp713
(dp714
g32
g43
sg34
g694
sbsbsI73
g2
(g20
g21
(lp715
F9.519618271003
aF7.4236118562511795
aF3.2721069793135973
aF0.0024495841886588467
aF0.0499104720648511
aF0.9379084586487689
atp716
Rp717
(dp718
g26
I73
sg271
g272
(g276
S'\x00\xb8\xe1\xa6\xea\xdfR?'
p719
tp720
Rp721
sg27
g2
(g28
g4
Ntp722
Rp723
(dp724
g32
g106
sg34
g407
sbsbsI74
g2
(g20
g21
(lp725
F4.841903842282234
aF5.934078615045186
aF3.338115897302372
aF0.0028666976117597246
aF0.03744295188163692
aF0.795205530551263
atp726
Rp727
(dp728
g26
I74
sg271
g272
(g276
S'\x00\x01"\x80\xec\xa8\x81?'
p729
tp730
Rp731
sg27
g2
(g28
g4
Ntp732
Rp733
(dp734
g32
g43
sg34
g650
sbsbsI75
g2
(g20
g21
(lp735
F9.519618271003
aF7.4236118562511795
aF3.2721069793135973
aF0.0024495841886588467
aF0.0499104720648511
aF0.9379084586487689
atp736
Rp737
(dp738
g26
I75
sg271
g272
(g276
S'\x00\xb8\xe1\xa6\xea\xdfR?'
p739
tp740
Rp741
sg27
g2
(g28
g4
Ntp742
Rp743
(dp744
g32
g106
sg34
g407
sbsbsI76
g2
(g20
g21
(lp745
F1.8180701060796762
aF7.466020272083162
aF7.3262503127993766
aF0.007111946577775828
aF0.0468220356959143
aF0.678650866699403
atp746
Rp747
(dp748
g26
I76
sg271
g272
(g276
S'\x00phy\xfa\xf9@?'
p749
tp750
Rp751
sg27
g2
(g28
g4
Ntp752
Rp753
(dp754
g32
g97
sg34
g628
sbsbsI77
g2
(g20
g21
(lp755
F1.8180701060796762
aF7.466020272083162
aF7.3262503127993766
aF0.007111946577775828
aF0.0468220356959143
aF0.678650866699403
atp756
Rp757
(dp758
g26
I77
sg271
g272
(g276
S'\x00phy\xfa\xf9@?'
p759
tp760
Rp761
sg27
g2
(g28
g4
Ntp762
Rp763
(dp764
g32
g97
sg34
g628
sbsbsI78
g2
(g20
g21
(lp765
F9.445152540157759
aF6.883926577311594
aF1.1431922106954873
aF0.0024495841886588467
aF0.0499104720648511
aF0.974573323409414
atp766
Rp767
(dp768
g26
I78
sg271
g272
(g276
S'\x00\x80\x9d!\xc4z5?'
p769
tp770
Rp771
sg27
g2
(g28
g4
Ntp772
Rp773
(dp774
g32
g106
sg34
g639
sbsbsI79
g2
(g20
g21
(lp775
F9.519618271003
aF7.4236118562511795
aF3.2721069793135973
aF0.0024495841886588467
aF0.0499104720648511
aF0.9379084586487689
atp776
Rp777
(dp778
g26
I79
sg271
g272
(g276
S'\x00\xb8\xe1\xa6\xea\xdfR?'
p779
tp780
Rp781
sg27
g2
(g28
g4
Ntp782
Rp783
(dp784
g32
g106
sg34
g407
sbsbsI80
g2
(g20
g21
(lp785
F1.8180701060796762
aF7.466020272083162
aF7.3262503127993766
aF0.007111946577775828
aF0.0468220356959143
aF0.678650866699403
atp786
Rp787
(dp788
g26
I80
sg271
g272
(g276
S'\x00phy\xfa\xf9@?'
p789
tp790
Rp791
sg27
g2
(g28
g4
Ntp792
Rp793
(dp794
g32
g97
sg34
g628
sbsbsI81
g2
(g20
g21
(lp795
F4.367946953635349
aF8.758737993985527
aF6.5503264612174625
aF7.360521535255829e-05
aF0.04201779601004339
aF0.7865001416900748
atp796
Rp797
(dp798
g26
I81
sg271
g272
(g276
S'\x00\xdej\xea\xf9_h?'
p799
tp800
Rp801
sg27
g2
(g28
g4
Ntp802
Rp803
(dp804
g32
g88
sg34
(F-7.826086956521738
F-3.3565754955462825
F-8.039555510245506
F-3.696369636964563
F-2.7129996527373588
F-29.459543815564654
F-17.54385964912281
F-9.01793711025702
F-0.7270132188347681
F-69.54557000078965
F-3.6423966324332904
F-44.904433351396236
F-5.736434108526835
tp805
sbsbsI82
g2
(g20
g21
(lp806
F9.038021104071712
aF7.282986076911456
aF0.6840814182471054
aF0.0035418630469802887
aF0.03744295188163692
aF0.9771275676101913
atp807
Rp808
(dp809
g26
I82
sg271
g272
(g276
S'\xb8\x0f\xea\xe6\xcc\r\xcc?'
p810
tp811
Rp812
sg27
g2
(g28
g4
Ntp813
Rp814
(dp815
g32
g43
sg34
(F-19.130434782608692
F-3.3553837541139786
F-27.613636363643447
F-8.382838283830349
F-250.0
F-250.0
F-250.0
F-250.0
F-0.6200796842103944
F-13.167915991727
F-13.217678528498551
F-73.62262233301949
F-12.86821705426168
tp816
sbsbsI83
g2
(g20
g21
(lp817
F4.804407546011395
aF3.754305464981799
aF3.8748068969894907
aF0.0017752679804913965
aF0.04891929082165713
aF0.9379084586487689
atp818
Rp819
(dp820
g26
I83
sg271
g272
(g276
S'\x00\xb8\xe1\xa6\xea\xdfR?'
p821
tp822
Rp823
sg27
g2
(g28
g4
Ntp824
Rp825
(dp826
g32
g106
sg34
(F-17.391304347826086
F-3.355501361113342
F-17.39778490839457
F-7.7227722772295335
F-250.0
F-11.312855111778276
F-423.157894736842
F-250.0
F-0.6508686061726476
F-37.71683800351934
F-8.122176181332586
F-33.14351433967865
F-5.736434108528766
tp827
sbsbsI84
g2
(g20
g21
(lp828
F9.39772122910876
aF7.628006579984461
aF2.940405613645338
aF0.002441862420158211
aF0.03816153539202168
aF0.795205530551263
atp829
Rp830
(dp831
g26
I84
sg271
g272
(g276
S'\x00\x01"\x80\xec\xa8\x81?'
p832
tp833
Rp834
sg27
g2
(g28
g4
Ntp835
Rp836
(dp837
g32
g43
sg34
(F-19.999999999999996
F-3.3563453175487816
F-250.0
F-250.0
F-250.0
F-250.0
F-250.0
F-250.0
F-0.709877051624729
F-38.14582883407329
F-7.37428475367591
F-250.0
F-250.0
tp838
sbsbsI85
g2
(g20
g21
(lp839
F2.493715194991919
aF9.661152347920696
aF3.741307773834028
aF0.0024495841886588467
aF0.0499104720648511
aF0.9379084586487689
atp840
Rp841
(dp842
g26
I85
sg271
g272
(g276
S'\x00\xb8\xe1\xa6\xea\xdfR?'
p843
tp844
Rp845
sg27
g2
(g28
g4
Ntp846
Rp847
(dp848
g32
g106
sg34
(F-0.0
F-3.3551609946063388
F-0.6283492697280703
F-11.023102310233607
F-3.886320721507971
F-2.0699404811974325
F-2.736842105263158
F-4.677239538746991
F-0.648643064650018
F-31.380530005577448
F-9.614865657490896
F-5.189887071244617
F-9.767441860465402
tp849
sbsbsI86
g2
(g20
g21
(lp850
F8.806226121372147
aF6.465377294546026
aF6.89407407796296
aF0.0067812116849551
aF0.0468220356959143
aF0.7630831471565862
atp851
Rp852
(dp853
g26
I86
sg271
g272
(g276
S'\x00phy\xfa\xf9@?'
p854
tp855
Rp856
sg27
g2
(g28
g4
Ntp857
Rp858
(dp859
g32
g97
sg34
(F-17.391304347826086
F-3.356137738075982
F-5.220458553795037
F-1.914191419142363
F-250.0
F-40.47993627900145
F-25.263157894736842
F-250.0
F-0.7180181725846321
F-84.98490591867474
F-1.4392507418182419
F-73.16794774863014
F-14.056847545218067
tp860
sbsbsI87
g2
(g20
g21
(lp861
F1.3845862563204951
aF7.098076078993187
aF1.6955435549030935
aF0.007111946577775828
aF0.04678845892044135
aF0.8217878034962885
atp862
Rp863
(dp864
g26
I87
sg271
g272
(g276
S'\x00phy\xfa\xf9@?'
p865
tp866
Rp867
sg27
g2
(g28
g4
Ntp868
Rp869
(dp870
g32
g97
sg34
(F-0.8695652173913042
F-3.35644606960896
F-0.7811531308122294
F-15.841584158419556
F-9.764926714917054
F-0.8944246459888714
F-0.8421052631578947
F-9.318346968635318
F-0.6901088790525738
F-5.13020921034084
F-15.844489945276232
F-12.308103115942354
F-11.38242894056805
tp871
sbsbsI88
g2
(g20
g21
(lp872
F7.90652861375006
aF6.883926577311594
aF8.1560654813397
aF0.0024495841886588467
aF0.04989342269760137
aF0.974573323409414
atp873
Rp874
(dp875
g26
I88
sg271
g272
(g276
S'\x00\x80\x9d!\xc4z5?'
p876
tp877
Rp878
sg27
g2
(g28
g4
Ntp879
Rp880
(dp881
g32
g106
sg34
(F-10.43478260869565
F-3.3529043005573893
F-10.459532187952782
F-5.610561056106926
F-0.14714313890225755
F-31.86470688998135
F-26.526315789473685
F-21.656355833666048
F-0.6289544848313688
F-88.97280471026026
F-0.3122009177833467
F-69.29861523591885
F-10.59901338971079
tp882
sbsbsI89
g2
(g20
g21
(lp883
F9.402557037343033
aF7.4236118562511795
aF3.2407516520464954
aF0.0024495841886588467
aF0.0499104720648511
aF0.9379084586487689
atp884
Rp885
(dp886
g26
I89
sg271
g272
(g276
S'\x00\xb8\xe1\xa6\xea\xdfR?'
p887
tp888
Rp889
sg27
g2
(g28
g4
Ntp890
Rp891
(dp892
g32
g106
sg34
(F-10.43478260869565
F-3.355600939263839
F-10.636871508379713
F-2.7062706270633408
F-12.128968121543059
F-6.601141782262184
F-31.57894736842105
F-3.9118893709653024
F-0.6489619471431441
F-42.250312916025564
F-6.621912170175286
F-68.39303999683872
F-8.653981677237807
tp893
sbsbsI90
g2
(g20
g21
(lp894
F1.8902095901321907
aF9.00781061237131
aF7.399906804372042
aF0.007045358691144411
aF0.0468220356959143
aF0.678650866699403
atp895
Rp896
(dp897
g26
I90
sg271
g272
(g276
S'\x00phy\xfa\xf9@?'
p898
tp899
Rp900
sg27
g2
(g28
g4
Ntp901
Rp902
(dp903
g32
g97
sg34
(F-5.217391304347825
F-3.356797262515598
F-4.604637035537633
F-8.250825082510186
F-6.5047923622772075
F-4.714306609545016
F-9.12280701754386
F-5.365891627352245
F-0.7607635662763279
F-74.0311274487991
F-3.6150329862713795
F-4.8495156568894995
F-9.302325581395449
tp904
sbsbsI91
g2
(g20
g21
(lp905
F1.3845862563204951
aF7.098076078993187
aF1.6955435549030935
aF0.007111946577775828
aF0.04678845892044135
aF0.8217878034962885
atp906
Rp907
(dp908
g26
I91
sg271
g272
(g276
S'\x00j\xcaI\xa7\xf0a?'
p909
tp910
Rp911
sg27
g2
(g28
g4
Ntp912
Rp913
(dp914
g32
g97
sg34
g871
sbsbsI92
g2
(g20
g21
(lp915
F9.445152540157759
aF6.883926577311594
aF1.1431922106954873
aF0.0024495841886588467
aF0.0499104720648511
aF0.974573323409414
atp916
Rp917
(dp918
g26
I92
sg271
g272
(g276
S'\xf0P\x0f6q?\xb0?'
p919
tp920
Rp921
sg27
g2
(g28
g4
Ntp922
Rp923
(dp924
g32
g106
sg34
g639
sbsbsI93
g2
(g20
g21
(lp925
F2.493715194991919
aF9.661152347920696
aF3.741307773834028
aF0.0024495841886588467
aF0.0499104720648511
aF0.9379084586487689
atp926
Rp927
(dp928
g26
I93
sg271
g272
(g276
S'\x00\xa8\xbc\xc6\x91_C?'
p929
tp930
Rp931
sg27
g2
(g28
g4
Ntp932
Rp933
(dp934
g32
g106
sg34
g849
sbsbsI94
g2
(g20
g21
(lp935
F1.3845862563204951
aF7.098076078993187
aF1.6955435549030935
aF0.007111946577775828
aF0.04678845892044135
aF0.8217878034962885
atp936
Rp937
(dp938
g26
I94
sg271
g272
(g276
S'\x00j\xcaI\xa7\xf0a?'
p939
tp940
Rp941
sg27
g2
(g28
g4
Ntp942
Rp943
(dp944
g32
g97
sg34
g871
sbsbsI95
g2
(g20
g21
(lp945
F2.493715194991919
aF9.661152347920696
aF3.741307773834028
aF0.0024495841886588467
aF0.0499104720648511
aF0.9379084586487689
atp946
Rp947
(dp948
g26
I95
sg271
g272
(g276
S'\x00\xa8\xbc\xc6\x91_C?'
p949
tp950
Rp951
sg27
g2
(g28
g4
Ntp952
Rp953
(dp954
g32
g106
sg34
g849
sbsbsI96
g2
(g20
g21
(lp955
F7.90652861375006
aF6.883926577311594
aF8.1560654813397
aF0.0024495841886588467
aF0.04989342269760137
aF0.974573323409414
atp956
Rp957
(dp958
g26
I96
sg271
g272
(g276
S'\x00\x00^1\xdeH\xe8>'
p959
tp960
Rp961
sg27
g2
(g28
g4
Ntp962
Rp963
(dp964
g32
g106
sg34
g882
sbsbsI97
g2
(g20
g21
(lp965
F9.038021104071712
aF7.282986076911456
aF0.6840814182471054
aF0.0035418630469802887
aF0.03744295188163692
aF0.9771275676101913
atp966
Rp967
(dp968
g26
I97
sg271
g272
(g276
S'\xe8\x15pd\xe4\xce\xc7?'
p969
tp970
Rp971
sg27
g2
(g28
g4
Ntp972
Rp973
(dp974
g32
g43
sg34
g816
sbsbsI98
g2
(g20
g21
(lp975
F8.806226121372147
aF6.465377294546026
aF6.89407407796296
aF0.0067812116849551
aF0.0468220356959143
aF0.7630831471565862
atp976
Rp977
(dp978
g26
I98
sg271
g272
(g276
S'x*\\;\xbb\xc5\xe0?'
p979
tp980
Rp981
sg27
g2
(g28
g4
Ntp982
Rp983
(dp984
g32
g97
sg34
g860
sbsbsI99
g2
(g20
g21
(lp985
F4.841903842282234
aF5.934078615045186
aF3.338115897302372
aF0.0028666976117597246
aF0.03744295188163692
aF0.795205530551263
atp986
Rp987
(dp988
g26
I99
sg271
g272
(g276
S'\x14\xe73\xbe\xf1S\xef?'
p989
tp990
Rp991
sg27
g2
(g28
g4
Ntp992
Rp993
(dp994
g32
g43
sg34
g650
sbsbsI100
g2
(g20
g21
(lp995
F9.038021104071712
aF7.282986076911456
aF0.6840814182471054
aF0.0035418630469802887
aF0.03744295188163692
aF0.9771275676101913
atp996
Rp997
(dp998
g26
I100
sg271
g272
(g276
S'\xe8\x15pd\xe4\xce\xc7?'
p999
tp1000
Rp1001
sg27
g2
(g28
g4
Ntp1002
Rp1003
(dp1004
g32
g43
sg34
g816
sbsbsI101
g2
(g20
g21
(lp1005
F2.1355780104176643
aF7.666834093290885
aF1.4356800858935266
aF0.0013593080656999728
aF0.045950734287319814
aF0.7293699219811994
atp1006
Rp1007
(dp1008
g26
I101
sg271
g272
(g276
S'\x00j\xcaI\xa7\xf0a?'
p1009
tp1010
Rp1011
sg27
g2
(g28
g4
Ntp1012
Rp1013
(dp1014
g32
g97
sg34
(F-0.0
F-3.3566960443334657
F-0.4701590839999998
F-15.445544554459067
F-11.241808588635953
F-1.4531371349037567
F-1.7543859649122806
F-11.156110168902442
F-0.7523537525037521
F-4.223978892856653
F-16.241391530618223
F-6.160070370073132
F-9.612403100775085
tp1015
sbsbsI102
g2
(g20
g21
(lp1016
F9.445152540157759
aF6.883926577311594
aF4.863782575553735
aF0.007091878426098541
aF0.0499104720648511
aF0.974573323409414
atp1017
Rp1018
(dp1019
g26
I102
sg271
g272
(g276
S'\xf0P\x0f6q?\xb0?'
p1020
tp1021
Rp1022
sg27
g2
(g28
g4
Ntp1023
Rp1024
(dp1025
g32
g106
sg34
(F-16.52173913043478
F-3.3559485282212074
F-8.263305322131549
F-1.386138613861711
F-1.1309630276258267
F-23.092449433066136
F-33.473684210526315
F-124.20254984106252
F-0.6191498096728898
F-61.50336284909667
F-3.6917922895392246
F-71.95878554172735
F-13.75968992247897
tp1026
sbsbsI103
g2
(g20
g21
(lp1027
F2.493715194991919
aF9.717617545212772
aF5.942150841111727
aF0.006828357735552147
aF0.04413107135858576
aF0.9379084586487689
atp1028
Rp1029
(dp1030
g26
I103
sg271
g272
(g276
S'\x00\xa8\xbc\xc6\x91_C?'
p1031
tp1032
Rp1033
sg27
g2
(g28
g4
Ntp1034
Rp1035
(dp1036
g32
g106
sg34
(F-3.478260869565217
F-3.355808271667651
F-3.176246830093254
F-6.072607260727496
F-11.65075395356457
F-4.493695007553648
F-6.175438596491228
F-15.815720278041471
F-0.6330326830146858
F-56.640689682551965
F-5.23712291155326
F-19.583122665980984
F-9.302325581395076
tp1037
sbsbsI104
g2
(g20
g21
(lp1038
F1.0243145965641562
aF8.912046090434595
aF2.198886737262026
aF0.0027331943942487287
aF0.04734561040611799
aF0.8217878034962885
atp1039
Rp1040
(dp1041
g26
I104
sg271
g272
(g276
S'\x00j\xcaI\xa7\xf0a?'
p1042
tp1043
Rp1044
sg27
g2
(g28
g4
Ntp1045
Rp1046
(dp1047
g32
g97
sg34
(F-3.478260869565217
F-3.355724839646395
F-2.972890648797269
F-15.709570957099393
F-1.3569430339179982
F-2.652220718067377
F-2.3157894736842106
F-0.24162081475524183
F-0.7031177419184242
F-10.525391428699479
F-14.761587580918656
F-15.928104852422681
F-12.472006890611343
tp1048
sbsbsI105
g2
(g20
g21
(lp1049
F2.493715194991919
aF9.957015753021363
aF3.741307773834028
aF0.002550594887573895
aF0.049941025814816326
aF0.881934437377959
atp1050
Rp1051
(dp1052
g26
I105
sg271
g272
(g276
S'\x00\xa8\xbc\xc6\x91_C?'
p1053
tp1054
Rp1055
sg27
g2
(g28
g4
Ntp1056
Rp1057
(dp1058
g32
g106
sg34
(F-0.0
F-3.3555087278781977
F-0.07031330782746249
F-11.353135313534015
F-4.096934397409083
F-1.7568700174606549
F-2.0350877192982457
F-5.155398794620688
F-0.6767064400210446
F-30.979800900119773
F-9.670508248931345
F-4.061074922076354
F-9.457364341085121
tp1059
sbsbsI106
g2
(g20
g21
(lp1060
F8.573996487451959
aF6.883926577311594
aF8.1560654813397
aF0.0024495841886588467
aF0.048773489460169774
aF0.974573323409414
atp1061
Rp1062
(dp1063
g26
I106
sg271
g272
(g276
S'\x00\x00^1\xdeH\xe8>'
p1064
tp1065
Rp1066
sg27
g2
(g28
g4
Ntp1067
Rp1068
(dp1069
g32
g106
sg34
(F-19.130434782608692
F-3.352327101472813
F-0.33980582524104036
F-7.194719471948882
F-250.0
F-250.0
F-250.0
F-250.0
F-0.6282567317212617
F-89.1711338204332
F-0.08826322475106482
F-72.87094454606621
F-16.43410852713084
tp1070
sbsbsI107
g2
(g20
g21
(lp1071
F9.041236390401368
aF6.464904473262569
aF1.6998184102214986
aF0.00331232934594388
aF0.03730484059797122
aF0.9779786500979702
atp1072
Rp1073
(dp1074
g26
I107
sg271
g272
(g276
S'\xe8\x15pd\xe4\xce\xc7?'
p1075
tp1076
Rp1077
sg27
g2
(g28
g4
Ntp1078
Rp1079
(dp1080
g32
g43
sg34
(F-19.130434782608692
F-3.3553952707648924
F-15.210084033614981
F-4.290429042905297
F-250.0
F-250.0
F-250.0
F-250.0
F-0.6202805715728434
F-24.06445286625646
F-10.45851183375643
F-71.5468917744055
F-12.86821705426168
tp1081
sbsbsI108
g2
(g20
g21
(lp1082
F8.803010835042286
aF7.283458898191261
aF6.880851594148062
aF0.0067812116849551
aF0.046958851462644946
aF0.8229302335234202
atp1083
Rp1084
(dp1085
g26
I108
sg271
g272
(g276
S'x*\\;\xbb\xc5\xe0?'
p1086
tp1087
Rp1088
sg27
g2
(g28
g4
Ntp1089
Rp1090
(dp1091
g32
g97
sg34
(F-19.130434782608692
F-3.3558782807686747
F-4.011461318050342
F-3.036303630363748
F-250.0
F-250.0
F-250.0
F-250.0
F-0.6873298261309855
F-85.05757609949448
F-1.3985938708870433
F-72.90301584662151
F-12.86821705426168
tp1092
sbsbsI109
g2
(g20
g21
(lp1093
F1.949023377873019
aF5.934078615045186
aF3.338115897302372
aF0.0028666976117597246
aF0.03744295188163692
aF0.8022243246250919
atp1094
Rp1095
(dp1096
g26
I109
sg271
g272
(g276
S'\x14\xe73\xbe\xf1S\xef?'
p1097
tp1098
Rp1099
sg27
g2
(g28
g4
Ntp1100
Rp1101
(dp1102
g32
g43
sg34
(F-6.956521739130434
F-3.3565344372980284
F-7.336288535159859
F-12.01320132013483
F-5.033881539008045
F-11.296890243287935
F-7.9298245614035086
F-3.876127724219291
F-0.7051512708667927
F-24.01548615687935
F-11.241779125621829
F-15.561453332666577
F-9.540051679587041
tp1103
sbsbsI110
g2
(g20
g21
(lp1104
F8.995409215119977
aF7.282986076911456
aF0.5664086878784009
aF0.0035418630469802887
aF0.031686206168472175
aF0.9796451061573004
atp1105
Rp1106
(dp1107
g26
I110
sg271
g272
(g276
S'\xe8\x15pd\xe4\xce\xc7?'
p1108
tp1109
Rp1110
sg27
g2
(g28
g4
Ntp1111
Rp1112
(dp1113
g32
g43
sg34
(F-19.999999999999996
F-3.355436513514313
F-250.0
F-250.0
F-250.0
F-250.0
F-250.0
F-250.0
F-0.6152195042550842
F-11.578905145208342
F-13.556078736982863
F-250.0
F-250.0
tp1114
sbsbsI111
g2
(g20
g21
(lp1115
F2.1355780104176643
aF7.666834093290885
aF1.4356800858935266
aF0.0013593080656999728
aF0.045950734287319814
aF0.7293699219811994
atp1116
Rp1117
(dp1118
g26
I111
sg271
g272
(g276
S'xJ\xcc\xd1/\x02\xec?'
p1119
tp1120
Rp1121
sg27
g2
(g28
g4
Ntp1122
Rp1123
(dp1124
g32
g97
sg34
g1015
sbsbsI112
g2
(g20
g21
(lp1125
F8.573996487451959
aF6.883926577311594
aF8.1560654813397
aF0.0024495841886588467
aF0.048773489460169774
aF0.974573323409414
atp1126
Rp1127
(dp1128
g26
I112
sg271
g272
(g276
S"`\x90\x1e'\x87:\xb2?"
p1129
tp1130
Rp1131
sg27
g2
(g28
g4
Ntp1132
Rp1133
(dp1134
g32
g106
sg34
g1070
sbsbsI113
g2
(g20
g21
(lp1135
F1.0243145965641562
aF8.912046090434595
aF2.198886737262026
aF0.0027331943942487287
aF0.04734561040611799
aF0.8217878034962885
atp1136
Rp1137
(dp1138
g26
I113
sg271
g272
(g276
S'\x10\xbc\x1e\xdar1\xbf?'
p1139
tp1140
Rp1141
sg27
g2
(g28
g4
Ntp1142
Rp1143
(dp1144
g32
g97
sg34
g1048
sbsbsI114
g2
(g20
g21
(lp1145
F9.445152540157759
aF6.883926577311594
aF1.1431922106954873
aF0.0024495841886588467
aF0.0499104720648511
aF0.974573323409414
atp1146
Rp1147
(dp1148
g26
I114
sg271
g272
(g276
S'@\x0f\xccs3\xc4\xba?'
p1149
tp1150
Rp1151
sg27
g2
(g28
g4
Ntp1152
Rp1153
(dp1154
g32
g106
sg34
g639
sbsbsI115
g2
(g20
g21
(lp1155
F2.493715194991919
aF9.717617545212772
aF5.942150841111727
aF0.006828357735552147
aF0.04413107135858576
aF0.9379084586487689
atp1156
Rp1157
(dp1158
g26
I115
sg271
g272
(g276
S'\x00\xcc\xac\xf48\xbe\x86?'
p1159
tp1160
Rp1161
sg27
g2
(g28
g4
Ntp1162
Rp1163
(dp1164
g32
g106
sg34
g1037
sbsbsI116
g2
(g20
g21
(lp1165
F2.493715194991919
aF9.661152347920696
aF3.741307773834028
aF0.0024495841886588467
aF0.0499104720648511
aF0.9379084586487689
atp1166
Rp1167
(dp1168
g26
I116
sg271
g272
(g276
S'V\xe0\xe6\xdbEU\xf0?'
p1169
tp1170
Rp1171
sg27
g2
(g28
g4
Ntp1172
Rp1173
(dp1174
g32
g106
sg34
g849
sbsbsI117
g2
(g20
g21
(lp1175
F8.573996487451959
aF6.883926577311594
aF8.1560654813397
aF0.0024495841886588467
aF0.048773489460169774
aF0.974573323409414
atp1176
Rp1177
(dp1178
g26
I117
sg271
g272
(g276
S"`\x90\x1e'\x87:\xb2?"
p1179
tp1180
Rp1181
sg27
g2
(g28
g4
Ntp1182
Rp1183
(dp1184
g32
g106
sg34
g1070
sbsbsI118
g2
(g20
g21
(lp1185
F2.493715194991919
aF9.717617545212772
aF5.942150841111727
aF0.006828357735552147
aF0.04413107135858576
aF0.9379084586487689
atp1186
Rp1187
(dp1188
g26
I118
sg271
g272
(g276
S'\x00\xcc\xac\xf48\xbe\x86?'
p1189
tp1190
Rp1191
sg27
g2
(g28
g4
Ntp1192
Rp1193
(dp1194
g32
g106
sg34
g1037
sbsbsI119
g2
(g20
g21
(lp1195
F1.0243145965641562
aF8.912046090434595
aF2.198886737262026
aF0.0027331943942487287
aF0.04734561040611799
aF0.8217878034962885
atp1196
Rp1197
(dp1198
g26
I119
sg271
g272
(g276
S'\x10\xbc\x1e\xdar1\xbf?'
p1199
tp1200
Rp1201
sg27
g2
(g28
g4
Ntp1202
Rp1203
(dp1204
g32
g97
sg34
g1048
sbsbsI120
g2
(g20
g21
(lp1205
F9.445152540157759
aF6.883926577311594
aF1.1431922106954873
aF0.0024495841886588467
aF0.0499104720648511
aF0.974573323409414
atp1206
Rp1207
(dp1208
g26
I120
sg271
g272
(g276
S'@\x0f\xccs3\xc4\xba?'
p1209
tp1210
Rp1211
sg27
g2
(g28
g4
Ntp1212
Rp1213
(dp1214
g32
g106
sg34
g639
sbsbsI121
g2
(g20
g21
(lp1215
F2.277976041358915
aF6.911408048953735
aF1.1597552804382993
aF0.001347992398237305
aF0.04975353872805479
aF0.8349473976206347
atp1216
Rp1217
(dp1218
g26
I121
sg271
g272
(g276
S'xJ\xcc\xd1/\x02\xec?'
p1219
tp1220
Rp1221
sg27
g2
(g28
g4
Ntp1222
Rp1223
(dp1224
g32
g97
sg34
(F-0.0
F-3.3562763211125133
F-0.2013353877758908
F-15.709570957099393
F-10.783394837524842
F-1.3179002239579742
F-1.4035087719298245
F-11.072342087926392
F-0.7024303697100535
F-1.1785005524419354
F-16.61151582373299
F-9.52492395114726
F-10.0775193798448
tp1225
sbsbsI122
g2
(g20
g21
(lp1226
F8.430331728615815
aF7.639352621639836
aF9.15862556181456
aF0.0034928136261059934
aF0.045422534662392246
aF0.9847830536184601
atp1227
Rp1228
(dp1229
g26
I122
sg271
g272
(g276
S"`\x90\x1e'\x87:\xb2?"
p1230
tp1231
Rp1232
sg27
g2
(g28
g4
Ntp1233
Rp1234
(dp1235
g32
g106
sg34
(F-19.999999999999996
F-3.34836279635228
F-250.0
F-250.0
F-250.0
F-250.0
F-250.0
F-250.0
F-0.6168779346717941
F-92.08880923414313
F-0.7820921973676607
F-250.0
F-250.0
tp1236
sbsbsI123
g2
(g20
g21
(lp1237
F9.564190917738657
aF8.856574866419518
aF2.140908450150664
aF0.004657055759056209
aF0.04734561040611799
aF0.9774108263186781
atp1238
Rp1239
(dp1240
g26
I123
sg271
g272
(g276
S'\x10\xbc\x1e\xdar1\xbf?'
p1241
tp1242
Rp1243
sg27
g2
(g28
g4
Ntp1244
Rp1245
(dp1246
g32
g97
sg34
(F-10.43478260869565
F-3.355494957698328
F-10.376866061175539
F-4.026402640264971
F-7.600163854399969
F-2.457814256612964
F-24.70175438596491
F-8.95320695852227
F-0.6234623406910641
F-29.43242957317743
F-8.883544655115019
F-70.71610203853373
F-10.59901338971042
tp1247
sbsbsI124
g2
(g20
g21
(lp1248
F0.8903512079938682
aF6.939383447875401
aF1.888705862590058
aF0.0024495841886588467
aF0.049988004636579916
aF0.8374031468798189
atp1249
Rp1250
(dp1251
g26
I124
sg271
g272
(g276
S'@\x0f\xccs3\xc4\xba?'
p1252
tp1253
Rp1254
sg27
g2
(g28
g4
Ntp1255
Rp1256
(dp1257
g32
g106
sg34
(F-2.6086956521739126
F-3.3558877622327166
F-2.450283359093389
F-16.43564356436029
F-7.493727193949894
F-1.7999886585121583
F-0.14035087719298245
F-6.500033024219269
F-0.6978881988669288
F-6.679577314760643
F-15.68466822453287
F-16.610430472760434
F-11.771019677996732
tp1258
sbsbsI125
g2
(g20
g21
(lp1259
F0.9046097008126408
aF9.717617545212772
aF1.7865630897936342
aF0.0057331222891002405
aF0.04413107135858576
aF0.8837187394508029
atp1260
Rp1261
(dp1262
g26
I125
sg271
g272
(g276
S'\x00\xcc\xac\xf48\xbe\x86?'
p1263
tp1264
Rp1265
sg27
g2
(g28
g4
Ntp1266
Rp1267
(dp1268
g32
g106
sg34
(F-5.217391304347825
F-3.355784257526443
F-4.433943293787115
F-16.039603960399802
F-8.41112543811129
F-3.917648165951195
F-0.7719298245614035
F-12.621944953981084
F-0.662274978632846
F-5.815658953793154
F-15.709473893457218
F-11.319418216950268
F-12.376369954557536
tp1269
sbsbsI126
g2
(g20
g21
(lp1270
F2.493715194991919
aF9.661152347920696
aF6.039696989552994
aF0.0024495841886588467
aF0.04996548255931825
aF0.9438162234595133
atp1271
Rp1272
(dp1273
g26
I126
sg271
g272
(g276
S'V\xe0\xe6\xdbEU\xf0?'
p1274
tp1275
Rp1276
sg27
g2
(g28
g4
Ntp1277
Rp1278
(dp1279
g32
g106
sg34
(F-0.8695652173913042
F-3.3557148754899693
F-0.40170419963521725
F-7.392739273929126
F-6.627825688449986
F-2.8880909903326772
F-5.894736842105263
F-4.3752203020884615
F-0.646704486642924
F-57.018384694554044
F-5.105137271254982
F-10.793465998086207
F-9.450904392764597
tp1280
sbsbsI127
g2
(g20
g21
(lp1281
F9.095884079474414
aF6.883926577311594
aF9.117624297311929
aF0.002787817355024262
aF0.048773489460169774
aF0.9350521669550292
atp1282
Rp1283
(dp1284
g26
I127
sg271
g272
(g276
S"`\x90\x1e'\x87:\xb2?"
p1285
tp1286
Rp1287
sg27
g2
(g28
g4
Ntp1288
Rp1289
(dp1290
g32
g106
sg34
(F-19.999999999999996
F-3.348364224980817
F-250.0
F-250.0
F-250.0
F-250.0
F-250.0
F-250.0
F-0.643598915352641
F-92.14839710875036
F-0.9066553731677603
F-250.0
F-250.0
tp1291
sbsbsI128
g2
(g20
g21
(lp1292
F2.2673392644971884
aF9.886123859493589
aF6.374352314992715
aF0.006828357735552147
aF0.04413107135858576
aF0.9846724410189438
atp1293
Rp1294
(dp1295
g26
I128
sg271
g272
(g276
S'\x00\xcc\xac\xf48\xbe\x86?'
p1296
tp1297
Rp1298
sg27
g2
(g28
g4
Ntp1299
Rp1300
(dp1301
g32
g106
sg34
(F-1.7391304347826084
F-3.3552409691926397
F-2.166599108228248
F-4.818481848185948
F-10.428555202078732
F-3.891117019404193
F-2.1052631578947367
F-9.768099656741068
F-0.6113176884560102
F-61.34953846585846
F-4.616742744859124
F-18.18504104343847
F-10.151347360649394
tp1302
sbsbsI129
g2
(g20
g21
(lp1303
F9.535371934116156
aF6.5684573144262055
aF1.171792341417179
aF0.002730450185457507
aF0.049309970957547314
aF0.8997706470015443
atp1304
Rp1305
(dp1306
g26
I129
sg271
g272
(g276
S'\x10\xbc\x1e\xdar1\xbf?'
p1307
tp1308
Rp1309
sg27
g2
(g28
g4
Ntp1310
Rp1311
(dp1312
g32
g97
sg34
(F-13.913043478260867
F-3.3559078151864328
F-13.583460949464317
F-7.656765676569452
F-107.72393703197632
F-8.419986525765774
F-195.22807017543855
F-60.44526329106172
F-0.6671011595633395
F-19.362005764315242
F-11.648283499045064
F-56.53298412600725
F-4.208194905870361
tp1313
sbsbsI130
g2
(g20
g21
(lp1314
F1.0619576558682766
aF8.557502211910768
aF2.1702880444844137
aF0.0024523283974500687
aF0.04991016009583609
aF0.9691882788554735
atp1315
Rp1316
(dp1317
g26
I130
sg271
g272
(g276
S'@\x0f\xccs3\xc4\xba?'
p1318
tp1319
Rp1320
sg27
g2
(g28
g4
Ntp1321
Rp1322
(dp1323
g32
g106
sg34
(F-2.6086956521739126
F-3.3548792482584857
F-2.7052938724467674
F-15.445544554459067
F-0.9999389481795224
F-2.3826675209696044
F-2.9473684210526314
F-0.9260966271587867
F-0.6349656257858485
F-10.437660705894283
F-14.60829300443219
F-18.173756253608026
F-12.593917710196527
tp1324
sbsbsI131
g2
(g20
g21
(lp1325
F9.564190917738657
aF8.856574866419518
aF2.140908450150664
aF0.004657055759056209
aF0.04734561040611799
aF0.9774108263186781
atp1326
Rp1327
(dp1328
g26
I131
sg271
g272
(g276
S' R\xaf\x8b\xf6M\xa3?'
p1329
tp1330
Rp1331
sg27
g2
(g28
g4
Ntp1332
Rp1333
(dp1334
g32
g97
sg34
g1247
sbsbsI132
g2
(g20
g21
(lp1335
F2.493715194991919
aF9.661152347920696
aF6.039696989552994
aF0.0024495841886588467
aF0.04996548255931825
aF0.9438162234595133
atp1336
Rp1337
(dp1338
g26
I132
sg271
g272
(g276
S'<\x9f\xcd(F3\xe1?'
p1339
tp1340
Rp1341
sg27
g2
(g28
g4
Ntp1342
Rp1343
(dp1344
g32
g106
sg34
g1280
sbsbsI133
g2
(g20
g21
(lp1345
F1.0619576558682766
aF8.557502211910768
aF2.1702880444844137
aF0.0024523283974500687
aF0.04991016009583609
aF0.9691882788554735
atp1346
Rp1347
(dp1348
g26
I133
sg271
g272
(g276
S'`\x88\xffr\xbf6\xa0?'
p1349
tp1350
Rp1351
sg27
g2
(g28
g4
Ntp1352
Rp1353
(dp1354
g32
g106
sg34
g1324
sbsbsI134
g2
(g20
g21
(lp1355
F2.493715194991919
aF9.661152347920696
aF3.741307773834028
aF0.0024495841886588467
aF0.0499104720648511
aF0.9379084586487689
atp1356
Rp1357
(dp1358
g26
I134
sg271
g272
(g276
S'@\x84\x9c}\\\xdf\x91?'
p1359
tp1360
Rp1361
sg27
g2
(g28
g4
Ntp1362
Rp1363
(dp1364
g32
g106
sg34
g849
sbsbsI135
g2
(g20
g21
(lp1365
F9.564190917738657
aF8.856574866419518
aF2.140908450150664
aF0.004657055759056209
aF0.04734561040611799
aF0.9774108263186781
atp1366
Rp1367
(dp1368
g26
I135
sg271
g272
(g276
S' R\xaf\x8b\xf6M\xa3?'
p1369
tp1370
Rp1371
sg27
g2
(g28
g4
Ntp1372
Rp1373
(dp1374
g32
g97
sg34
g1247
sbsbsI136
g2
(g20
g21
(lp1375
F2.493715194991919
aF9.661152347920696
aF3.741307773834028
aF0.0024495841886588467
aF0.0499104720648511
aF0.9379084586487689
atp1376
Rp1377
(dp1378
g26
I136
sg271
g272
(g276
S'@\x84\x9c}\\\xdf\x91?'
p1379
tp1380
Rp1381
sg27
g2
(g28
g4
Ntp1382
Rp1383
(dp1384
g32
g106
sg34
g849
sbsbsI137
g2
(g20
g21
(lp1385
F0.9046097008126408
aF9.717617545212772
aF1.7865630897936342
aF0.0057331222891002405
aF0.04413107135858576
aF0.8837187394508029
atp1386
Rp1387
(dp1388
g26
I137
sg271
g272
(g276
S'\x94}\xff\xaa\xd6\xc3\xd8?'
p1389
tp1390
Rp1391
sg27
g2
(g28
g4
Ntp1392
Rp1393
(dp1394
g32
g106
sg34
g1269
sbsbsI138
g2
(g20
g21
(lp1395
F2.493715194991919
aF9.661152347920696
aF3.741307773834028
aF0.0024495841886588467
aF0.0499104720648511
aF0.9379084586487689
atp1396
Rp1397
(dp1398
g26
I138
sg271
g272
(g276
S'@\x84\x9c}\\\xdf\x91?'
p1399
tp1400
Rp1401
sg27
g2
(g28
g4
Ntp1402
Rp1403
(dp1404
g32
g106
sg34
g849
sbsbsI139
g2
(g20
g21
(lp1405
F9.535371934116156
aF6.5684573144262055
aF1.171792341417179
aF0.002730450185457507
aF0.049309970957547314
aF0.8997706470015443
atp1406
Rp1407
(dp1408
g26
I139
sg271
g272
(g276
S' \xe3\xcd\xc5\xca\xf5\xd6?'
p1409
tp1410
Rp1411
sg27
g2
(g28
g4
Ntp1412
Rp1413
(dp1414
g32
g97
sg34
g1313
sbsbsI140
g2
(g20
g21
(lp1415
F2.2673392644971884
aF9.886123859493589
aF6.374352314992715
aF0.006828357735552147
aF0.04413107135858576
aF0.9846724410189438
atp1416
Rp1417
(dp1418
g26
I140
sg271
g272
(g276
S'\x80\x00\x0f\xd6\xf1\xe3\xb9?'
p1419
tp1420
Rp1421
sg27
g2
(g28
g4
Ntp1422
Rp1423
(dp1424
g32
g106
sg34
g1302
sbsbsI141
g2
(g20
g21
(lp1425
F9.656047346379346
aF9.335593565777444
aF2.5515832625484256
aF0.0050611361712823615
aF0.04734561040611799
aF0.9789787885653211
atp1426
Rp1427
(dp1428
g26
I141
sg271
g272
(g276
S' R\xaf\x8b\xf6M\xa3?'
p1429
tp1430
Rp1431
sg27
g2
(g28
g4
Ntp1432
Rp1433
(dp1434
g32
g97
sg34
(F-15.652173913043477
F-3.3555228415387175
F-7.9942693409770245
F-2.8382838283835037
F-4.381322875703362
F-3.124782287005584
F-25.403508771929825
F-64.12686953006914
F-0.621776122643627
F-34.80184908358019
F-7.829210906382591
F-69.59579221571282
F-10.01550387596635
tp1435
sbsbsI142
g2
(g20
g21
(lp1436
F2.2783696871469528
aF9.758088902254721
aF6.203721272537194
aF0.0034264214725754304
aF0.04997990469562203
aF0.9468889883952403
atp1437
Rp1438
(dp1439
g26
I142
sg271
g272
(g276
S'<\x9f\xcd(F3\xe1?'
p1440
tp1441
Rp1442
sg27
g2
(g28
g4
Ntp1443
Rp1444
(dp1445
g32
g106
sg34
(F-1.7391304347826084
F-3.3554527967556194
F-1.893614797784375
F-7.260726072608963
F-7.8264807885215175
F-2.8730878934135466
F-6.175438596491228
F-5.238088978116547
F-0.6425453343014458
F-58.983844008674026
F-4.937404902051459
F-8.909776478181923
F-9.872868217054013
tp1446
sbsbsI143
g2
(g20
g21
(lp1447
F1.0619576558682766
aF9.637279277486346
aF2.9795053037852095
aF0.002449568160867541
aF0.04991052336788795
aF0.9730256107116151
atp1448
Rp1449
(dp1450
g26
I143
sg271
g272
(g276
S'`\x88\xffr\xbf6\xa0?'
p1451
tp1452
Rp1453
sg27
g2
(g28
g4
Ntp1454
Rp1455
(dp1456
g32
g106
sg34
(F-7.826086956521738
F-3.3546586266715686
F-7.285307285307754
F-14.19141914191752
F-7.1297892620169385
F-6.8676337411665385
F-2.526315789473684
F-12.837776701844623
F-0.6337516267292278
F-17.895490505565768
F-12.406042374047736
F-14.080564747123843
F-12.533914728681959
tp1457
sbsbsI144
g2
(g20
g21
(lp1458
F3.3838286437832354
aF9.14515433631114
aF3.741307773834028
aF0.002452344425241374
aF0.04997358180622122
aF0.9340710076512059
atp1459
Rp1460
(dp1461
g26
I144
sg271
g272
(g276
S'@\x84\x9c}\\\xdf\x91?'
p1462
tp1463
Rp1464
sg27
g2
(g28
g4
Ntp1465
Rp1466
(dp1467
g32
g106
sg34
(F-5.217391304347825
F-3.355487498943179
F-4.916887241927215
F-9.900990099012223
F-1.4995534786904765
F-14.252390076564364
F-5.964912280701754
F-6.440182739071901
F-0.6514335884059901
F-31.807381910818606
F-9.088290329536754
F-14.721527862154815
F-7.624259005927065
tp1468
sbsbsI145
g2
(g20
g21
(lp1469
F2.440378766360711
aF9.645779806363729
aF3.746555340822309
aF0.004657055759056209
aF0.04996250646343033
aF0.9612304875635779
atp1470
Rp1471
(dp1472
g26
I145
sg271
g272
(g276
S' R\xaf\x8b\xf6M\xa3?'
p1473
tp1474
Rp1475
sg27
g2
(g28
g4
Ntp1476
Rp1477
(dp1478
g32
g97
sg34
(F-0.0
F-3.3554236890744256
F-0.5959931541321793
F-11.023102310233607
F-3.871893646418374
F-2.0018221657358843
F-2.8771929824561404
F-4.7069173907573125
F-0.6316321270118729
F-31.762301846805876
F-9.59415920322692
F-5.371923125130492
F-9.92248062015466
tp1479
sbsbsI146
g2
(g20
g21
(lp1480
F8.409708241239864
aF9.824435757059883
aF2.1073807981267927
aF0.0024495841886588467
aF0.04804760284072407
aF0.9758379747153008
atp1481
Rp1482
(dp1483
g26
I146
sg271
g272
(g276
S'@\x84\x9c}\\\xdf\x91?'
p1484
tp1485
Rp1486
sg27
g2
(g28
g4
Ntp1487
Rp1488
(dp1489
g32
g106
sg34
(F-9.565217391304346
F-3.355369840535602
F-9.880245546945487
F-5.80858085808717
F-6.947150656377892
F-6.082294098036906
F-22.666666666666668
F-4.404471527111575
F-0.6307944581628999
F-27.485952521079607
F-9.713650606134092
F-60.762420746524846
F-5.142118863049558
tp1490
sbsbsI147
g2
(g20
g21
(lp1491
F0.8943847199973044
aF9.717617545212772
aF1.7865630897936342
aF0.0057331222891002405
aF0.0468051330208063
aF0.9736187708844014
atp1492
Rp1493
(dp1494
g26
I147
sg271
g272
(g276
S'\x94}\xff\xaa\xd6\xc3\xd8?'
p1495
tp1496
Rp1497
sg27
g2
(g28
g4
Ntp1498
Rp1499
(dp1500
g32
g106
sg34
(F-5.217391304347825
F-3.355800257882415
F-4.614605489719956
F-15.973597359739719
F-9.00042801903262
F-4.1013951110158375
F-1.0526315789473684
F-13.249332619203146
F-0.6214586431591993
F-5.798970841657219
F-15.578672537711995
F-16.547578680521084
F-12.745255279337105
tp1501
sbsbsI148
g2
(g20
g21
(lp1502
F2.504154267784354
aF7.771383417559994
aF4.605657389176403
aF0.0024495841886588467
aF0.0444423627881614
aF0.8851171817933633
atp1503
Rp1504
(dp1505
g26
I148
sg271
g272
(g276
S'@\x84\x9c}\\\xdf\x91?'
p1506
tp1507
Rp1508
sg27
g2
(g28
g4
Ntp1509
Rp1510
(dp1511
g32
g106
sg34
(F-4.3478260869565215
F-3.3556629253865036
F-4.52923076923061
F-9.438943894391652
F-2.3592460247680305
F-5.168166479610556
F-6.666666666666667
F-3.936087940754656
F-0.6695749246113616
F-40.81338525005522
F-7.822202237686039
F-14.487882779928388
F-9.30232558139522
tp1512
sbsbsI149
g2
(g20
g21
(lp1513
F9.272746438169156
aF6.422933958843199
aF3.0889108136043903
aF0.0027586950764758784
aF0.04932254778387474
aF0.8997706470015443
atp1514
Rp1515
(dp1516
g26
I149
sg271
g272
(g276
S' \xe3\xcd\xc5\xca\xf5\xd6?'
p1517
tp1518
Rp1519
sg27
g2
(g28
g4
Ntp1520
Rp1521
(dp1522
g32
g97
sg34
(F-11.304347826086955
F-3.355803939314829
F-10.70335034391004
F-3.4323432343242373
F-14.729570469095016
F-5.444553619629215
F-36.280701754385966
F-8.672958261620911
F-0.6664510373332784
F-39.759129651396606
F-7.084783166384497
F-67.3190849889575
F-6.806201550386946
tp1523
sbsbsI150
g2
(g20
g21
(lp1524
F3.639748075839725
aF9.886123859493589
aF6.374352314992715
aF0.00816155384447231
aF0.04717535279973152
aF0.8797308977336766
atp1525
Rp1526
(dp1527
g26
I150
sg271
g272
(g276
S'\x80\x00\x0f\xd6\xf1\xe3\xb9?'
p1528
tp1529
Rp1530
sg27
g2
(g28
g4
Ntp1531
Rp1532
(dp1533
g32
g106
sg34
(F-5.217391304347825
F-3.3562991793636323
F-4.847904701127752
F-4.950495049506111
F-4.4795276918313025
F-5.612149610852894
F-6.947368421052632
F-18.318082665547102
F-0.6587350216256666
F-65.35282810894824
F-4.079652299844314
F-27.790330282029288
F-7.414500683993823
tp1534
sbsbssbsS'parents'
p1535
(lp1536
g2
(g20
g21
(lp1537
F2.2673392644971884
aF9.886123859493589
aF6.374352314992715
aF0.006828357735552147
aF0.04413107135858576
aF0.9846724410189438
atp1538
Rp1539
(dp1540
g26
I140
sg271
g272
(g276
S'\x00\x80\xbc\xd0\xa3\xe3\x1f?'
p1541
tp1542
Rp1543
sg27
g2
(g28
g4
Ntp1544
Rp1545
(dp1546
g32
g106
sg34
g1302
sbsbag2
(g20
g21
(lp1547
F3.3838286437832354
aF9.14515433631114
aF3.741307773834028
aF0.002452344425241374
aF0.04997358180622122
aF0.9340710076512059
atp1548
Rp1549
(dp1550
g26
I144
sg271
g272
(g276
S'\x00\x92\xaf\xb0Vk\x9b?'
p1551
tp1552
Rp1553
sg27
g2
(g28
g4
Ntp1554
Rp1555
(dp1556
g32
g106
sg34
g1468
sbsbag1549
ag2
(g20
g21
(lp1557
F9.656047346379346
aF9.335593565777444
aF2.5515832625484256
aF0.0050611361712823615
aF0.04734561040611799
aF0.9789787885653211
atp1558
Rp1559
(dp1560
g26
I141
sg271
g272
(g276
S'@er\xdb\x06\xfd\xaf?'
p1561
tp1562
Rp1563
sg27
g2
(g28
g4
Ntp1564
Rp1565
(dp1566
g32
g97
sg34
g1435
sbsbag2
(g20
g21
(lp1567
F1.0619576558682766
aF9.637279277486346
aF2.9795053037852095
aF0.002449568160867541
aF0.04991052336788795
aF0.9730256107116151
atp1568
Rp1569
(dp1570
g26
I143
sg271
g272
(g276
S'\x00\x10\xa5\x1e\xb7\x08\x9e?'
p1571
tp1572
Rp1573
sg27
g2
(g28
g4
Ntp1574
Rp1575
(dp1576
g32
g106
sg34
g1457
sbsbag2
(g20
g21
(lp1577
F1.0619576558682766
aF8.557502211910768
aF2.1702880444844137
aF0.0024523283974500687
aF0.04991016009583609
aF0.9691882788554735
atp1578
Rp1579
(dp1580
g26
I133
sg271
g272
(g276
S'\x00\x95\x82\xd3\x98\xe2p?'
p1581
tp1582
Rp1583
sg27
g2
(g28
g4
Ntp1584
Rp1585
(dp1586
g32
g106
sg34
g1324
sbsbag2
(g20
g21
(lp1587
F3.639748075839725
aF9.886123859493589
aF6.374352314992715
aF0.00816155384447231
aF0.04717535279973152
aF0.8797308977336766
atp1588
Rp1589
(dp1590
g26
I150
sg271
g272
(g276
S'\x80\xd4\x16\xa6\x01-\x8e?'
p1591
tp1592
Rp1593
sg27
g2
(g28
g4
Ntp1594
Rp1595
(dp1596
g32
g106
sg34
g1534
sbsbag1569
ag1539
ag2
(g20
g21
(lp1597
F0.8943847199973044
aF9.717617545212772
aF1.7865630897936342
aF0.0057331222891002405
aF0.0468051330208063
aF0.9736187708844014
atp1598
Rp1599
(dp1600
g26
I147
sg271
g272
(g276
S'\xc0Tk;\x18\x8e\x95?'
p1601
tp1602
Rp1603
sg27
g2
(g28
g4
Ntp1604
Rp1605
(dp1606
g32
g106
sg34
g1501
sbsbasS'generation'
p1607
I8
sS'logbook'
p1608
g2
(cdeap.tools.support
Logbook
p1609
g21
(lp1610
(dp1611
S'std'
p1612
g272
(g276
S'[=s\xba\xf3\xde\x84@'
p1613
tp1614
Rp1615
sS'nevals'
p1616
I10
sS'min'
p1617
g272
(g276
S'\xc2\xef\xd4\xeb\xca\xc2Z@'
p1618
tp1619
Rp1620
sS'max'
p1621
g272
(g276
S'\xc1\x1aU\x08\xceB\xa0@'
p1622
tp1623
Rp1624
sS'avg'
p1625
g272
(g276
S'\xc1,:\xd9s\xe6\x83@'
p1626
tp1627
Rp1628
sS'gen'
p1629
I1
sa(dp1630
g1612
g272
(g276
S'*\xd4\xaa\xe5\xe8H\x84@'
p1631
tp1632
Rp1633
sg1616
I10
sg1617
g272
(g276
S'\xc2\xef\xd4\xeb\xca\xc2Z@'
p1634
tp1635
Rp1636
sg1621
g272
(g276
S'\xc1\x1aU\x08\xceB\xa0@'
p1637
tp1638
Rp1639
sg1625
g272
(g276
S'\xed\xa5\x1c\x9a>\x8e\x82@'
p1640
tp1641
Rp1642
sg1629
I2
sa(dp1643
g1612
g272
(g276
S'\xee\x94\xd8\x01\xb0\xed\x85@'
p1644
tp1645
Rp1646
sg1616
I10
sg1617
g272
(g276
S'\xc2\xef\xd4\xeb\xca\xc2Z@'
p1647
tp1648
Rp1649
sg1621
g272
(g276
S'\xc1\x1aU\x08\xceB\xa0@'
p1650
tp1651
Rp1652
sg1625
g272
(g276
S'\xe8\x8f\x93Y\xd2\xc0\x81@'
p1653
tp1654
Rp1655
sg1629
I3
sa(dp1656
g1612
g272
(g276
S'6\xe21\xa2\xdf\xccy@'
p1657
tp1658
Rp1659
sg1616
I10
sg1617
g272
(g276
S'\xeb\xca\x03A\\\x1e_@'
p1660
tp1661
Rp1662
sg1621
g272
(g276
S'\xa9\xbbG\x0f\xb2$\x97@'
p1663
tp1664
Rp1665
sg1625
g272
(g276
S'\xbeSUR\\\xf1|@'
p1666
tp1667
Rp1668
sg1629
I4
sa(dp1669
g1612
g272
(g276
S'T\xf3t\xdc\x1d\t\x7f@'
p1670
tp1671
Rp1672
sg1616
I10
sg1617
g272
(g276
S'\x1a%i\xd8\x9c>U@'
p1673
tp1674
Rp1675
sg1621
g272
(g276
S'\xe8\xfe94,+\xa0@'
p1676
tp1677
Rp1678
sg1625
g272
(g276
S'\xca\xfbv\x065\x82|@'
p1679
tp1680
Rp1681
sg1629
I5
sa(dp1682
g1612
g272
(g276
S'!+\xee\x90\xe4\x85\x81@'
p1683
tp1684
Rp1685
sg1616
I10
sg1617
g272
(g276
S'\xbc\xec;\xf4\x8dwT@'
p1686
tp1687
Rp1688
sg1621
g272
(g276
S'\xf8\xd6n\x166\x02\xa0@'
p1689
tp1690
Rp1691
sg1625
g272
(g276
S'f\x80-D\x8au\x81@'
p1692
tp1693
Rp1694
sg1629
I6
sa(dp1695
g1612
g272
(g276
S'\xbf\x91\x96\xf9_\x07\x84@'
p1696
tp1697
Rp1698
sg1616
I10
sg1617
g272
(g276
S'\xbc\xec;\xf4\x8dwT@'
p1699
tp1700
Rp1701
sg1621
g272
(g276
S'\xf1\x7fn\x12\x18\x8a\xa0@'
p1702
tp1703
Rp1704
sg1625
g272
(g276
S'm\xbcq>V\x03~@'
p1705
tp1706
Rp1707
sg1629
I7
sa(dp1708
g1612
g272
(g276
S'\xba\xe5\t\xe2FJW@'
p1709
tp1710
Rp1711
sg1616
I10
sg1617
g272
(g276
S'\x1a%i\xd8\x9c>U@'
p1712
tp1713
Rp1714
sg1621
g272
(g276
S'\xa3p\xbb\x89\xebk\x7f@'
p1715
tp1716
Rp1717
sg1625
g272
(g276
S'\x8e\x16\xd5\xe8L\xfab@'
p1718
tp1719
Rp1720
sg1629
I8
satp1721
Rp1722
(dp1723
S'log_header'
p1724
I01
sS'header'
p1725
(lp1726
g1629
ag1616
ag1625
ag1612
ag1617
ag1621
asS'columns_len'
p1727
(lp1728
I3
aI6
aI7
aI7
aI7
aI7
asS'buffindex'
p1729
I8
sS'chapters'
p1730
ccollections
defaultdict
p1731
(g1609
tp1732
Rp1733
sbsS'rndstate'
p1734
(I3
(L2212473412L
L2044973860L
L3706432164L
L3453105686L
L2237885269L
L3230396462L
L4179997673L
L2408656167L
L1486653942L
L2032464320L
L1176460216L
L182654469L
L2862397008L
L273818311L
L3006107126L
L830169962L
L1154452785L
L862200973L
L2939194304L
L2035348412L
L3142609023L
L2621432071L
L965019391L
L2775681999L
L2574937441L
L902049492L
L3265036360L
L1252371069L
L53562543L
L4219171952L
L3179037873L
L2373940709L
L3852476363L
L3384060315L
L1345450867L
L570436724L
L2860701508L
L3257650188L
L3722995930L
L2351336123L
L2944840523L
L1227299773L
L2969867680L
L2103868330L
L3558656950L
L2142337774L
L3257784606L
L2933875744L
L555160189L
L3013876642L
L2614681531L
L2704124991L
L2219647146L
L2555968261L
L3124675367L
L2488180093L
L3956746013L
L1994815654L
L3520312064L
L2490099980L
L4265719477L
L2849775362L
L2559802695L
L3393012938L
L3760532999L
L841190952L
L3082797418L
L1550859250L
L3794343138L
L4156658871L
L367697409L
L1734004447L
L1287773307L
L2308449659L
L2920718189L
L3608487355L
L1551213180L
L1156934881L
L1293596908L
L2447619644L
L2377752818L
L1853337903L
L276952059L
L3235591718L
L1747656068L
L3352029649L
L1441757627L
L3767892450L
L1299805578L
L2684171034L
L107152003L
L1064742698L
L1005818932L
L1777591546L
L2516889655L
L2060296366L
L2601649674L
L1976151278L
L2493324531L
L1691078567L
L4016004268L
L550302403L
L3780657132L
L3297483093L
L3633741585L
L3766820756L
L1700263608L
L3499273320L
L2136244560L
L1213853690L
L1512174245L
L508429311L
L1180456283L
L299161588L
L81677587L
L1769273103L
L678249309L
L3329437427L
L2113507045L
L525454383L
L955541632L
L475433723L
L3159658970L
L1632407399L
L4135577741L
L3227703369L
L2703591458L
L2361305145L
L961625478L
L2702728428L
L2715360192L
L627652112L
L3428515586L
L3862708628L
L2547160925L
L2793132938L
L4197430097L
L3478446105L
L144921310L
L2378300716L
L235293834L
L1559251017L
L4264457231L
L2662136261L
L3940789177L
L3606690685L
L2620011762L
L3934811445L
L4099945271L
L3085749454L
L2151302612L
L1168405560L
L3959829152L
L2548554539L
L854928069L
L1580343790L
L1324711677L
L1195672302L
L2210138059L
L3865493416L
L1666788997L
L2215637746L
L2321199594L
L2617544471L
L780841626L
L19680687L
L2051671234L
L1461840362L
L2136401976L
L263032788L
L3929898026L
L2283426852L
L2979295785L
L1911896895L
L3773748520L
L3009545187L
L1323544457L
L670386317L
L3576906387L
L3825847419L
L860819192L
L329939271L
L2085261977L
L3501408485L
L3082985398L
L1244705136L
L302288349L
L2718129658L
L918423267L
L1400529990L
L4252549050L
L162481222L
L1033620289L
L2060033133L
L1672795968L
L711842642L
L1559662518L
L1498167895L
L975676053L
L4137312988L
L2989711339L
L2640967147L
L3433940057L
L3740371925L
L4095326405L
L2262008944L
L3676590535L
L3339981295L
L3329684853L
L2353338998L
L2142708051L
L19308743L
L958037342L
L3765824405L
L2930578334L
L1570814871L
L2658922381L
L1806156645L
L2483673600L
L4061442311L
L3057749121L
L3443530874L
L266311978L
L3883977237L
L3924024136L
L4210501128L
L2218807145L
L4177661959L
L2162300400L
L3054362084L
L4004106178L
L2351629806L
L2095434618L
L4219404214L
L3626725130L
L718287194L
L1479530487L
L1727898792L
L962277223L
L3232944579L
L2219929822L
L628804745L
L2444239405L
L1486408481L
L1578580337L
L2578636738L
L404433132L
L1698202881L
L117448381L
L4225558547L
L2349869539L
L2130592201L
L1577292815L
L3964738947L
L3754851056L
L2700694736L
L2044874264L
L88459078L
L2315853658L
L2498204199L
L2920521183L
L265132448L
L2452010481L
L113487014L
L3910070462L
L1671690257L
L3700030873L
L507451372L
L767498659L
L106845069L
L2138935035L
L1944511876L
L1670993205L
L4101885235L
L4092612279L
L3807343786L
L4115930639L
L293228926L
L3557216036L
L1960043322L
L535086404L
L2275334957L
L160918384L
L2678297587L
L2504288938L
L1978833128L
L289090872L
L3228659274L
L1452300457L
L1442834933L
L4044704167L
L2273167378L
L1352904246L
L2093133013L
L1882000599L
L2090315540L
L2223521851L
L3445715518L
L175582287L
L1406767021L
L3106167126L
L2800925097L
L3424018708L
L813809710L
L2628529748L
L16493617L
L4156741938L
L3844502034L
L674805287L
L3215826461L
L1396749527L
L143013550L
L1194020064L
L577108776L
L4234885083L
L1357676420L
L3504531665L
L872682508L
L2154245646L
L2554998922L
L3806926397L
L2486101150L
L3610638087L
L4083139436L
L2750659466L
L1497064166L
L96893458L
L258160724L
L390579695L
L1379953751L
L709539990L
L3453027614L
L729328596L
L1083222334L
L53391473L
L1935597847L
L2499667192L
L2350607685L
L1623373847L
L1869724520L
L3946857581L
L614563755L
L3238670688L
L2716134715L
L1228969057L
L3399975702L
L3636187792L
L3624315843L
L2638753938L
L3404033782L
L1189730623L
L1037011824L
L2189933972L
L3113826259L
L4198967891L
L887372759L
L2456086919L
L117492803L
L2433724652L
L3143262970L
L67762442L
L824543310L
L4146643067L
L3689615796L
L3169809263L
L3705464440L
L3933109197L
L1007558019L
L962977915L
L1725455251L
L2726844042L
L1081173831L
L1366048256L
L3633541621L
L2273074973L
L2569613663L
L4122004437L
L448657367L
L4181915954L
L3670901155L
L1997643870L
L414773190L
L1492629875L
L4186734915L
L603334342L
L1017303385L
L96367362L
L3213503122L
L2063138909L
L1291025136L
L3462657078L
L757309067L
L1961882503L
L2485267026L
L2395036268L
L1908767691L
L459706003L
L2919910669L
L3030286200L
L2117601034L
L901004039L
L3518027157L
L3506678790L
L1065722537L
L1613297923L
L1209531443L
L1285694473L
L1539153782L
L680229125L
L2171107001L
L3775753227L
L3138637514L
L632891574L
L1150782981L
L1024077185L
L559058681L
L3736144848L
L747878597L
L1167743543L
L2243448725L
L1581523512L
L840045395L
L1879462995L
L2253527611L
L979658977L
L3200696199L
L1739624965L
L934077455L
L316183657L
L2343820805L
L146939246L
L1374186013L
L3089864188L
L2333765458L
L301553609L
L3847480982L
L2236933863L
L3526643493L
L3570266626L
L2373916100L
L1827232200L
L1640226276L
L501431766L
L466052847L
L397529820L
L107479007L
L775922334L
L2145580904L
L3650056253L
L1306895050L
L968300351L
L1272712146L
L99506718L
L3738864823L
L195683802L
L1527393203L
L3633124500L
L247551043L
L1735397121L
L3665839365L
L705103782L
L390261455L
L2225977040L
L3422808751L
L3722719030L
L369662743L
L3180353640L
L4126140038L
L148755753L
L1619747336L
L827768552L
L2536784671L
L2316373413L
L845340615L
L3491028345L
L3669319077L
L291113821L
L4085828305L
L1568698849L
L839067883L
L4054508457L
L929050583L
L3497143283L
L1304288248L
L3792774695L
L608856316L
L3345484724L
L2012687136L
L1640704672L
L1212720393L
L1968070765L
L1526637819L
L4231589734L
L804687625L
L1883434886L
L1481228057L
L3135826400L
L4292506910L
L205464082L
L1665264779L
L561006027L
L2628507379L
L2224379655L
L1518218857L
L4102596087L
L3559835153L
L1291242115L
L57763472L
L137005920L
L1357483566L
L2896210416L
L1146977344L
L3096622828L
L1926764350L
L1470928126L
L292536409L
L2623353731L
L2090864594L
L3689386939L
L3183337668L
L699708302L
L3096692069L
L3908049887L
L701217269L
L599404702L
L1162417791L
L3664153160L
L3008620062L
L3596337252L
L3768011367L
L3878503673L
L1729052277L
L2642045806L
L1526248868L
L2773533300L
L3515212475L
L2720540194L
L2255154365L
L3057178115L
L231068623L
L4056905466L
L2607157550L
L4066475346L
L3609872351L
L242755958L
L4247554010L
L2673856087L
L2393016345L
L2222034003L
L1531025586L
L3789065279L
L915363529L
L3741974981L
L1632937790L
L2783242733L
L852696295L
L2290677443L
L1241412240L
L1286559948L
L4038351265L
L3593567359L
L2445999250L
L2925992456L
L3541977155L
L2259254047L
L3006116678L
L2743053424L
L1122738405L
L1151674167L
L2013860998L
L3484623623L
L1758489310L
L3756455016L
L4222671933L
L1615653269L
L114750207L
L944020157L
L1794588511L
L2977453914L
L2152016999L
L3264045495L
L2138810863L
L275475334L
L1886948309L
L664259877L
L2860150886L
L1225729217L
L828676770L
L3774332453L
L4006553728L
L318804223L
L276589981L
L3376801607L
L3451689588L
L2815001723L
L4009244403L
L1874330547L
L228736935L
L3981691711L
L4286916964L
L3479540131L
L2317311723L
L2309998113L
L2479927275L
L114707286L
L1409529304L
L713703499L
L1027772815L
L2225441845L
L3083964687L
L1277117849L
L2139375516L
L2666381926L
L1397678255L
L625290847L
L3366150742L
L1834465252L
L1380051299L
L1687330569L
L74710235L
L3590978497L
L2876748497L
L709309860L
L1518951345L
L420L
tp1735
Ntp1736
sS'halloffame'
p1737
g2
(cdeap.tools.support
HallOfFame
p1738
g4
Ntp1739
Rp1740
(dp1741
S'keys'
p1742
(lp1743
g2
(g28
g4
Ntp1744
Rp1745
(dp1746
g32
g106
sg34
g1269
sbag2
(g28
g4
Ntp1747
Rp1748
(dp1749
g32
g106
sg34
g1258
sbag2
(g28
g4
Ntp1750
Rp1751
(dp1752
g32
g106
sg34
g1324
sbag2
(g28
g4
Ntp1753
Rp1754
(dp1755
g32
g97
sg34
g871
sbag2
(g28
g4
Ntp1756
Rp1757
(dp1758
g32
g97
sg34
g1048
sbag2
(g28
g4
Ntp1759
Rp1760
(dp1761
g32
g97
sg34
g1479
sbag2
(g28
g4
Ntp1762
Rp1763
(dp1764
g32
g106
sg34
g849
sbag2
(g28
g4
Ntp1765
Rp1766
(dp1767
g32
g106
sg34
g1059
sbag2
(g28
g4
Ntp1768
Rp1769
(dp1770
g32
g97
sg34
g1225
sbag2
(g28
g4
Ntp1771
Rp1772
(dp1773
g32
g97
sg34
g1015
sbasS'items'
p1774
(lp1775
g2
(g20
g21
(lp1776
F2.1355780104176643
aF7.666834093290885
aF1.4356800858935266
aF0.0013593080656999728
aF0.045950734287319814
aF0.7293699219811994
atp1777
Rp1778
(dp1779
g26
I87
sg271
g272
(g276
S'\x00j\xcaI\xa7\xf0a?'
p1780
tp1781
Rp1782
sg27
g1772
sbag2
(g20
g21
(lp1783
F2.277976041358915
aF6.911408048953735
aF1.1597552804382993
aF0.001347992398237305
aF0.04975353872805479
aF0.8349473976206347
atp1784
Rp1785
(dp1786
g26
I101
sg271
g272
(g276
S'xJ\xcc\xd1/\x02\xec?'
p1787
tp1788
Rp1789
sg27
g1769
sbag2
(g20
g21
(lp1790
F2.493715194991919
aF9.957015753021363
aF3.741307773834028
aF0.002550594887573895
aF0.049941025814816326
aF0.881934437377959
atp1791
Rp1792
(dp1793
g26
I85
sg271
g272
(g276
S'\x00\xa8\xbc\xc6\x91_C?'
p1794
tp1795
Rp1796
sg27
g1766
sbag2
(g20
g21
(lp1797
F2.493715194991919
aF9.661152347920696
aF3.741307773834028
aF0.0024495841886588467
aF0.0499104720648511
aF0.9379084586487689
atp1798
Rp1799
(dp1800
g26
I55
sg271
g272
(g276
S'\x00\xb8\xe1\xa6\xea\xdfR?'
p1801
tp1802
Rp1803
sg27
g1763
sbag2
(g20
g21
(lp1804
F2.440378766360711
aF9.645779806363729
aF3.746555340822309
aF0.004657055759056209
aF0.04996250646343033
aF0.9612304875635779
atp1805
Rp1806
(dp1807
g26
I123
sg271
g272
(g276
S' R\xaf\x8b\xf6M\xa3?'
p1808
tp1809
Rp1810
sg27
g1760
sbag2
(g20
g21
(lp1811
F1.0243145965641562
aF8.912046090434595
aF2.198886737262026
aF0.0027331943942487287
aF0.04734561040611799
aF0.8217878034962885
atp1812
Rp1813
(dp1814
g26
I87
sg271
g272
(g276
S'\x00j\xcaI\xa7\xf0a?'
p1815
tp1816
Rp1817
sg27
g1757
sbag2
(g20
g21
(lp1818
F1.3845862563204951
aF7.098076078993187
aF1.6955435549030935
aF0.007111946577775828
aF0.04678845892044135
aF0.8217878034962885
atp1819
Rp1820
(dp1821
g26
I64
sg271
g272
(g276
S'\x00phy\xfa\xf9@?'
p1822
tp1823
Rp1824
sg27
g1754
sbag2
(g20
g21
(lp1825
F1.0619576558682766
aF8.557502211910768
aF2.1702880444844137
aF0.0024523283974500687
aF0.04991016009583609
aF0.9691882788554735
atp1826
Rp1827
(dp1828
g26
I92
sg271
g272
(g276
S'@\x0f\xccs3\xc4\xba?'
p1829
tp1830
Rp1831
sg27
g1751
sbag2
(g20
g21
(lp1832
F0.8903512079938682
aF6.939383447875401
aF1.888705862590058
aF0.0024495841886588467
aF0.049988004636579916
aF0.8374031468798189
atp1833
Rp1834
(dp1835
g26
I92
sg271
g272
(g276
S'@\x0f\xccs3\xc4\xba?'
p1836
tp1837
Rp1838
sg27
g1748
sbag2
(g20
g21
(lp1839
F0.9046097008126408
aF9.717617545212772
aF1.7865630897936342
aF0.0057331222891002405
aF0.04413107135858576
aF0.8837187394508029
atp1840
Rp1841
(dp1842
g26
I103
sg271
g272
(g276
S'\x00\xcc\xac\xf48\xbe\x86?'
p1843
tp1844
Rp1845
sg27
g1745
sbasS'maxsize'
p1846
I10
sS'similar'
p1847
coperator
eq
p1848
sbsS'population'
p1849
(lp1850
g1539
ag2
(g20
g21
(lp1851
F8.409708241239864
aF9.824435757059883
aF2.1073807981267927
aF0.0024495841886588467
aF0.04804760284072407
aF0.9758379747153008
atp1852
Rp1853
(dp1854
g26
I146
sg271
g272
(g276
S'\x00 yx\xfc7$?'
p1855
tp1856
Rp1857
sg27
g2
(g28
g4
Ntp1858
Rp1859
(dp1860
g32
g106
sg34
g1490
sbsbag1579
ag2
(g20
g21
(lp1861
F2.440378766360711
aF9.645779806363729
aF3.746555340822309
aF0.004657055759056209
aF0.04996250646343033
aF0.9612304875635779
atp1862
Rp1863
(dp1864
g26
I145
sg271
g272
(g276
S'\x00\xf7\x01488\x83?'
p1865
tp1866
Rp1867
sg27
g2
(g28
g4
Ntp1868
Rp1869
(dp1870
g32
g97
sg34
g1479
sbsbag2
(g20
g21
(lp1871
F9.272746438169156
aF6.422933958843199
aF3.0889108136043903
aF0.0027586950764758784
aF0.04932254778387474
aF0.8997706470015443
atp1872
Rp1873
(dp1874
g26
I149
sg271
g272
(g276
S'\x80\xcf\xb2u2\x13\x8e?'
p1875
tp1876
Rp1877
sg27
g2
(g28
g4
Ntp1878
Rp1879
(dp1880
g32
g97
sg34
g1523
sbsbag1589
ag1599
ag1549
ag1569
ag1559
ag2
(g20
g21
(lp1881
F9.535371934116156
aF6.5684573144262055
aF1.171792341417179
aF0.002730450185457507
aF0.049309970957547314
aF0.8997706470015443
atp1882
Rp1883
(dp1884
g26
I139
sg271
g272
(g276
S' \xf8\xa0\x07R\x05\xb1?'
p1885
tp1886
Rp1887
sg27
g2
(g28
g4
Ntp1888
Rp1889
(dp1890
g32
g97
sg34
g1313
sbsbag2
(g20
g21
(lp1891
F2.2783696871469528
aF9.758088902254721
aF6.203721272537194
aF0.0034264214725754304
aF0.04997990469562203
aF0.9468889883952403
atp1892
Rp1893
(dp1894
g26
I142
sg271
g272
(g276
S'P\xcdD\xf3\xba\xf1\xb9?'
p1895
tp1896
Rp1897
sg27
g2
(g28
g4
Ntp1898
Rp1899
(dp1900
g32
g106
sg34
g1446
sbsbag2
(g20
g21
(lp1901
F2.493715194991919
aF9.661152347920696
aF6.039696989552994
aF0.0024495841886588467
aF0.04996548255931825
aF0.9438162234595133
atp1902
Rp1903
(dp1904
g26
I132
sg271
g272
(g276
S'\x08\xca\xab\xb7\xb0z\xc6?'
p1905
tp1906
Rp1907
sg27
g2
(g28
g4
Ntp1908
Rp1909
(dp1910
g32
g106
sg34
g1280
sbsbag2
(g20
g21
(lp1911
F2.504154267784354
aF7.771383417559994
aF4.605657389176403
aF0.0024495841886588467
aF0.0444423627881614
aF0.8851171817933633
atp1912
Rp1913
(dp1914
g26
I148
sg271
g272
(g276
S'\x10q,R\xe5\xba\xc8?'
p1915
tp1916
Rp1917
sg27
g2
(g28
g4
Ntp1918
Rp1919
(dp1920
g32
g106
sg34
g1512
sbsbag2
(g20
g21
(lp1921
F0.9046097008126408
aF9.717617545212772
aF1.7865630897936342
aF0.0057331222891002405
aF0.04413107135858576
aF0.8837187394508029
atp1922
Rp1923
(dp1924
g26
I137
sg271
g272
(g276
S'\x94,\xc0\x88\xedp\xd5?'
p1925
tp1926
Rp1927
sg27
g2
(g28
g4
Ntp1928
Rp1929
(dp1930
g32
g106
sg34
g1269
sbsbag2
(g20
g21
(lp1931
F9.564190917738657
aF8.856574866419518
aF2.140908450150664
aF0.004657055759056209
aF0.04734561040611799
aF0.9774108263186781
atp1932
Rp1933
(dp1934
g26
I135
sg271
g272
(g276
S'\x12\xb2@v$\x0c\xf0?'
p1935
tp1936
Rp1937
sg27
g2
(g28
g4
Ntp1938
Rp1939
(dp1940
g32
g97
sg34
g1247
sbsbag1933
ag2
(g20
g21
(lp1941
F2.493715194991919
aF9.661152347920696
aF3.741307773834028
aF0.0024495841886588467
aF0.0499104720648511
aF0.9379084586487689
atp1942
Rp1943
(dp1944
g26
I138
sg271
g272
(g276
S'f\x91\xdc\xb0\x12V\x00@'
p1945
tp1946
Rp1947
sg27
g2
(g28
g4
Ntp1948
Rp1949
(dp1950
g32
g106
sg34
g849
sbsbag1943
ag1943
as.